 kinect2

 Timestamp is 5b1eb1b1 (Mon Jun 11 13:30:25 2018)

 Preferred load address is 0000000180000000

 Start         Length     Name                   Class
 0001:00000000 000001e0H .text                   CODE
 0001:000001e0 000002a0H .text$di                CODE
 0001:00000480 0001afb0H .text$mn                CODE
 0001:0001b430 00000020H .text$mn$00             CODE
 0001:0001b450 00000270H .text$x                 CODE
 0001:0001b6c0 00000063H .text$yd                CODE
 0002:00000000 000003e0H .idata$5                DATA
 0002:000003e0 00000010H .00cfg                  DATA
 0002:000003f0 00000008H .CRT$XCA                DATA
 0002:000003f8 000000b0H .CRT$XCU                DATA
 0002:000004a8 00000008H .CRT$XCZ                DATA
 0002:000004b0 00000008H .CRT$XIA                DATA
 0002:000004b8 00000018H .CRT$XIC                DATA
 0002:000004d0 00000008H .CRT$XIZ                DATA
 0002:000004d8 00000008H .CRT$XPA                DATA
 0002:000004e0 00000010H .CRT$XPX                DATA
 0002:000004f0 00000008H .CRT$XPXA               DATA
 0002:000004f8 00000008H .CRT$XPZ                DATA
 0002:00000500 00000008H .CRT$XTA                DATA
 0002:00000508 00000008H .CRT$XTZ                DATA
 0002:00000510 00008cf8H .rdata                  DATA
 0002:00009208 00000388H .rdata$r                DATA
 0002:00009590 00000010H .rdata$zETW0            DATA
 0002:000095a0 00000077H .rdata$zETW1            DATA
 0002:00009617 0000002cH .rdata$zETW2            DATA
 0002:00009643 00000001H .rdata$zETW9            DATA
 0002:00009644 0000040cH .rdata$zzzdbg           DATA
 0002:00009a50 00000008H .rtc$IAA                DATA
 0002:00009a58 00000008H .rtc$IZZ                DATA
 0002:00009a60 00000008H .rtc$TAA                DATA
 0002:00009a68 00000008H .rtc$TZZ                DATA
 0002:00009a70 00001298H .xdata                  DATA
 0002:0000ad08 000001e8H .xdata$x                DATA
 0002:0000aef0 00000054H .edata                  DATA
 0002:0000af44 00000050H .idata$2                DATA
 0002:0000af94 00000014H .idata$3                DATA
 0002:0000afa8 000003e0H .idata$4                DATA
 0002:0000b388 00001058H .idata$6                DATA
 0003:00000000 000009c0H .data                   DATA
 0003:000009c0 00000120H .data$r                 DATA
 0003:00000ae0 05ef39c8H .bss                    DATA
 0004:00000000 00001728H .pdata                  DATA
 0005:00000000 00000084H .gfids$x                DATA
 0005:00000084 00000050H .gfids$y                DATA
 0006:00000000 00000060H .rsrc$01                DATA
 0006:00000060 00000180H .rsrc$02                DATA

  Address         Publics by Value              Rva+Base               Lib:Object

 0000:00000000       __guard_iat_table          0000000000000000     <absolute>
 0000:00000000       __guard_iat_count          0000000000000000     <absolute>
 0000:00000000       __dynamic_value_reloc_table 0000000000000000     <absolute>
 0000:00000000       __guard_longjmp_table      0000000000000000     <absolute>
 0000:00000000       __guard_longjmp_count      0000000000000000     <absolute>
 0000:00000000       __guard_fids_count         0000000000000000     <absolute>
 0000:00000000       ___safe_se_handler_table   0000000000000000     <absolute>
 0000:00000000       ___safe_se_handler_count   0000000000000000     <absolute>
 0000:00000000       __guard_fids_table         0000000000000000     <absolute>
 0000:00000100       __guard_flags              0000000000000100     <absolute>
 0000:00000000       __ImageBase                0000000180000000     <linker-defined>
 0001:00000000       ?TraceLoggingRegister@__vcrt_trace_logging_provider@@YAJPEBU_TlgProvider_t@1@PEBU_GUID@@P6AX1KE_K2PEAU_EVENT_FILTER_DESCRIPTOR@@PEAX@Z4@Z 0000000180001000 f i libvcruntime:telemetry.obj
 0001:0000007c       ?_TlgEnableCallback@__vcrt_trace_logging_provider@@YAXPEBU_GUID@@KE_K1PEAU_EVENT_FILTER_DESCRIPTOR@@PEAX@Z 000000018000107c f i libvcruntime:telemetry.obj
 0001:00000140       ?_TlgWrite@__vcrt_trace_logging_provider@@YAJPEBU_TlgProvider_t@1@PEFBXPEBU_GUID@@2IPEAU_EVENT_DATA_DESCRIPTOR@@@Z 0000000180001140 f i libvcruntime:telemetry.obj
 0001:00000550       ?New@?$Factory@VFunctionTemplate@v8@@@imp@Nan@@SA?AV?$Local@VFunctionTemplate@v8@@@v8@@P6AXAEBV?$FunctionCallbackInfo@VValue@v8@@@3@@ZV?$Local@VValue@v8@@@5@V?$Local@VSignature@v8@@@5@@Z 0000000180001550 f i kinect2.obj
 0001:00000730       ?Call@Callback@Nan@@QEBA?AV?$Local@VValue@v8@@@v8@@HQEAV34@@Z 0000000180001730 f i kinect2.obj
 0001:00000830       ?OpenFunction@@YAXAEBV?$FunctionCallbackInfo@VValue@v8@@@Nan@@@Z 0000000180001830 f   kinect2.obj
 0001:000008d0       ?CloseFunction@@YAXAEBV?$FunctionCallbackInfo@VValue@v8@@@Nan@@@Z 00000001800018d0 f   kinect2.obj
 0001:00000be0       ?ColorProgress_@@YAXPEAUuv_async_s@@@Z 0000000180001be0 f   kinect2.obj
 0001:00000c70       ?processColorFrameData@@YAJPEAUIColorFrame@@@Z 0000000180001c70 f   kinect2.obj
 0001:00000e00       ?ColorReaderThreadLoop@@YAXPEAX@Z 0000000180001e00 f   kinect2.obj
 0001:00000f70       ?OpenColorReaderFunction@@YAXAEBV?$FunctionCallbackInfo@VValue@v8@@@Nan@@@Z 0000000180001f70 f   kinect2.obj
 0001:000010e0       ?CloseColorReaderFunction@@YAXAEBV?$FunctionCallbackInfo@VValue@v8@@@Nan@@@Z 00000001800020e0 f   kinect2.obj
 0001:00001180       ?InfraredProgress_@@YAXPEAUuv_async_s@@@Z 0000000180002180 f   kinect2.obj
 0001:00001210       ?processInfraredFrameData@@YAJPEAUIInfraredFrame@@@Z 0000000180002210 f   kinect2.obj
 0001:00001380       ?InfraredReaderThreadLoop@@YAXPEAX@Z 0000000180002380 f   kinect2.obj
 0001:000014d0       ?OpenInfraredReaderFunction@@YAXAEBV?$FunctionCallbackInfo@VValue@v8@@@Nan@@@Z 00000001800024d0 f   kinect2.obj
 0001:00001640       ?CloseInfraredReaderFunction@@YAXAEBV?$FunctionCallbackInfo@VValue@v8@@@Nan@@@Z 0000000180002640 f   kinect2.obj
 0001:000016e0       ?LongExposureInfraredProgress_@@YAXPEAUuv_async_s@@@Z 00000001800026e0 f   kinect2.obj
 0001:00001770       ?processLongExposureInfraredFrameData@@YAJPEAUILongExposureInfraredFrame@@@Z 0000000180002770 f   kinect2.obj
 0001:000018e0       ?LongExposureInfraredReaderThreadLoop@@YAXPEAX@Z 00000001800028e0 f   kinect2.obj
 0001:00001a30       ?OpenLongExposureInfraredReaderFunction@@YAXAEBV?$FunctionCallbackInfo@VValue@v8@@@Nan@@@Z 0000000180002a30 f   kinect2.obj
 0001:00001ba0       ?CloseLongExposureInfraredReaderFunction@@YAXAEBV?$FunctionCallbackInfo@VValue@v8@@@Nan@@@Z 0000000180002ba0 f   kinect2.obj
 0001:00001c40       ?DepthProgress_@@YAXPEAUuv_async_s@@@Z 0000000180002c40 f   kinect2.obj
 0001:00001cd0       ?processDepthFrameData@@YAJPEAUIDepthFrame@@@Z 0000000180002cd0 f   kinect2.obj
 0001:00001e30       ?DepthReaderThreadLoop@@YAXPEAX@Z 0000000180002e30 f   kinect2.obj
 0001:00001fb0       ?OpenDepthReaderFunction@@YAXAEBV?$FunctionCallbackInfo@VValue@v8@@@Nan@@@Z 0000000180002fb0 f   kinect2.obj
 0001:00002120       ?CloseDepthReaderFunction@@YAXAEBV?$FunctionCallbackInfo@VValue@v8@@@Nan@@@Z 0000000180003120 f   kinect2.obj
 0001:000021c0       ?RawDepthProgress_@@YAXPEAUuv_async_s@@@Z 00000001800031c0 f   kinect2.obj
 0001:00002250       ?processRawDepthFrameData@@YAJPEAUIDepthFrame@@@Z 0000000180003250 f   kinect2.obj
 0001:00002320       ?RawDepthReaderThreadLoop@@YAXPEAX@Z 0000000180003320 f   kinect2.obj
 0001:000024a0       ?OpenRawDepthReaderFunction@@YAXAEBV?$FunctionCallbackInfo@VValue@v8@@@Nan@@@Z 00000001800034a0 f   kinect2.obj
 0001:00002610       ?CloseRawDepthReaderFunction@@YAXAEBV?$FunctionCallbackInfo@VValue@v8@@@Nan@@@Z 0000000180003610 f   kinect2.obj
 0001:000026b0       ?getV8BodyFrame_@@YA?AV?$Local@VObject@v8@@@v8@@XZ 00000001800036b0 f   kinect2.obj
 0001:00003e60       ?BodyProgress_@@YAXPEAUuv_async_s@@@Z 0000000180004e60 f   kinect2.obj
 0001:00003ee0       ?processBodyFrameData@@YAJPEAUIBodyFrame@@@Z 0000000180004ee0 f   kinect2.obj
 0001:00004460       ?BodyReaderThreadLoop@@YAXPEAX@Z 0000000180005460 f   kinect2.obj
 0001:000045e0       ?OpenBodyReaderFunction@@YAXAEBV?$FunctionCallbackInfo@VValue@v8@@@Nan@@@Z 00000001800055e0 f   kinect2.obj
 0001:00004750       ?CloseBodyReaderFunction@@YAXAEBV?$FunctionCallbackInfo@VValue@v8@@@Nan@@@Z 0000000180005750 f   kinect2.obj
 0001:000047f0       ?MultiSourceProgress_@@YAXPEAUuv_async_s@@@Z 00000001800057f0 f   kinect2.obj
 0001:00005bc0       ?MultiSourceReaderThreadLoop@@YAXPEAX@Z 0000000180006bc0 f   kinect2.obj
 0001:000068b0       ?OpenMultiSourceReaderFunction@@YAXAEBV?$FunctionCallbackInfo@VValue@v8@@@Nan@@@Z 00000001800078b0 f   kinect2.obj
 0001:00006c40       ?CloseMultiSourceReaderFunction@@YAXAEBV?$FunctionCallbackInfo@VValue@v8@@@Nan@@@Z 0000000180007c40 f   kinect2.obj
 0001:00006ce0       ?TrackPixelsForBodyIndicesFunction@@YAXAEBV?$FunctionCallbackInfo@VValue@v8@@@Nan@@@Z 0000000180007ce0 f   kinect2.obj
 0001:00006de0       ?Init@@YAXV?$Local@VObject@v8@@@v8@@@Z 0000000180007de0 f   kinect2.obj
 0001:00007d20       ?assign@?$basic_string@DU?$char_traits@D@std@@V?$allocator@D@2@@std@@QEAAAEAV12@PEBD_K@Z 0000000180008d20 f i kinect2.obj
 0001:00007e60       ?assign@?$basic_string@DU?$char_traits@D@std@@V?$allocator@D@2@@std@@QEAAAEAV12@AEBV12@_K1@Z 0000000180008e60 f i kinect2.obj
 0001:00007f90       ?erase@?$basic_string@DU?$char_traits@D@std@@V?$allocator@D@2@@std@@QEAAAEAV12@_K0@Z 0000000180008f90 f i kinect2.obj
 0001:00008040       ?_Copy@?$basic_string@DU?$char_traits@D@std@@V?$allocator@D@2@@std@@QEAAX_K0@Z 0000000180009040 f i kinect2.obj
 0001:000081d0       ??$_Integral_to_string@D_K@std@@YA?AV?$basic_string@DU?$char_traits@D@std@@V?$allocator@D@2@@0@_K@Z 00000001800091d0 f i kinect2.obj
 0001:0000826c       ??0bad_alloc@std@@QEAA@AEBV01@@Z 000000018000926c f i libcpmt:xthrow.obj
 0001:000082ac       ??0bad_alloc@std@@QEAA@XZ  00000001800092ac f i libcpmt:xthrow.obj
 0001:000082cc       ??0exception@std@@QEAA@AEBV01@@Z 00000001800092cc f i libcpmt:xthrow.obj
 0001:00008304       ??0length_error@std@@QEAA@AEBV01@@Z 0000000180009304 f i libcpmt:xthrow.obj
 0001:00008344       ??0length_error@std@@QEAA@PEBD@Z 0000000180009344 f i libcpmt:xthrow.obj
 0001:00008390       ??0logic_error@std@@QEAA@AEBV01@@Z 0000000180009390 f i libcpmt:xthrow.obj
 0001:000083d0       ??0out_of_range@std@@QEAA@AEBV01@@Z 00000001800093d0 f i libcpmt:xthrow.obj
 0001:00008410       ??0out_of_range@std@@QEAA@PEBD@Z 0000000180009410 f i libcpmt:xthrow.obj
 0001:0000845c       ??1out_of_range@std@@UEAA@XZ 000000018000945c f i libcpmt:xthrow.obj
 0001:0000845c       ??1bad_array_new_length@std@@UEAA@XZ 000000018000945c f i LIBCMT:throw_bad_alloc.obj
 0001:0000845c       ??1bad_alloc@std@@UEAA@XZ  000000018000945c f i libcpmt:xthrow.obj
 0001:0000845c       ??1length_error@std@@UEAA@XZ 000000018000945c f i libcpmt:xthrow.obj
 0001:00008470       ??_Gbad_array_new_length@std@@UEAAPEAXI@Z 0000000180009470 f i LIBCMT:throw_bad_alloc.obj
 0001:00008470       ??_Eexception@std@@UEAAPEAXI@Z 0000000180009470 f i libcpmt:xthrow.obj
 0001:00008470       ??_Ebad_array_new_length@std@@UEAAPEAXI@Z 0000000180009470 f i LIBCMT:throw_bad_alloc.obj
 0001:00008470       ??_Gout_of_range@std@@UEAAPEAXI@Z 0000000180009470 f i libcpmt:xthrow.obj
 0001:00008470       ??_Glength_error@std@@UEAAPEAXI@Z 0000000180009470 f i libcpmt:xthrow.obj
 0001:00008470       ??_Eout_of_range@std@@UEAAPEAXI@Z 0000000180009470 f i libcpmt:xthrow.obj
 0001:00008470       ??_Gbad_alloc@std@@UEAAPEAXI@Z 0000000180009470 f i libcpmt:xthrow.obj
 0001:00008470       ??_Elogic_error@std@@UEAAPEAXI@Z 0000000180009470 f i libcpmt:xthrow.obj
 0001:00008470       ??_Gexception@std@@UEAAPEAXI@Z 0000000180009470 f i libcpmt:xthrow.obj
 0001:00008470       ??_Glogic_error@std@@UEAAPEAXI@Z 0000000180009470 f i libcpmt:xthrow.obj
 0001:00008470       ??_Elength_error@std@@UEAAPEAXI@Z 0000000180009470 f i libcpmt:xthrow.obj
 0001:00008470       ??_Ebad_alloc@std@@UEAAPEAXI@Z 0000000180009470 f i libcpmt:xthrow.obj
 0001:000084b4       ?_Xbad_alloc@std@@YAXXZ    00000001800094b4 f   libcpmt:xthrow.obj
 0001:000084b4       ?__scrt_throw_std_bad_alloc@@YAXXZ 00000001800094b4 f   LIBCMT:throw_bad_alloc.obj
 0001:000084d4       ?_Xlength_error@std@@YAXPEBD@Z 00000001800094d4 f   libcpmt:xthrow.obj
 0001:000084f8       ?_Xout_of_range@std@@YAXPEBD@Z 00000001800094f8 f   libcpmt:xthrow.obj
 0001:0000851c       ?what@exception@std@@UEBAPEBDXZ 000000018000951c f i libcpmt:xthrow.obj
 0001:00008540       __security_check_cookie    0000000180009540 f   LIBCMT:_amdsecgs_.obj
 0001:00008564       __raise_securityfailure    0000000180009564 f   LIBCMT:gs_report.obj
 0001:00008598       __report_gsfailure         0000000180009598 f   LIBCMT:gs_report.obj
 0001:0000866c       __report_rangecheckfailure 000000018000966c f   LIBCMT:gs_report.obj
 0001:00008680       __report_securityfailure   0000000180009680 f   LIBCMT:gs_report.obj
 0001:00008800       ??2@YAPEAX_K@Z             0000000180009800 f   LIBCMT:new_scalar.obj
 0001:0000883c       __scrt_acquire_startup_lock 000000018000983c f   LIBCMT:utility.obj
 0001:00008878       __scrt_dllmain_after_initialize_c 0000000180009878 f   LIBCMT:utility.obj
 0001:000088ac       __scrt_dllmain_before_initialize_c 00000001800098ac f   LIBCMT:utility.obj
 0001:000088c4       __scrt_dllmain_crt_thread_attach 00000001800098c4 f   LIBCMT:utility.obj
 0001:000088ec       __scrt_dllmain_crt_thread_detach 00000001800098ec f   LIBCMT:utility.obj
 0001:00008904       __scrt_dllmain_exception_filter 0000000180009904 f   LIBCMT:utility.obj
 0001:00008968       __scrt_dllmain_uninitialize_c 0000000180009968 f   LIBCMT:utility.obj
 0001:00008998       __scrt_dllmain_uninitialize_critical 0000000180009998 f   LIBCMT:utility.obj
 0001:000089ac       __scrt_initialize_crt      00000001800099ac f   LIBCMT:utility.obj
 0001:000089f8       __scrt_initialize_onexit_tables 00000001800099f8 f   LIBCMT:utility.obj
 0001:00008ac4       __scrt_is_nonwritable_in_current_image 0000000180009ac4 f   LIBCMT:utility.obj
 0001:00008b60       __scrt_release_startup_lock 0000000180009b60 f   LIBCMT:utility.obj
 0001:00008b84       __scrt_uninitialize_crt    0000000180009b84 f   LIBCMT:utility.obj
 0001:00008bb0       _onexit                    0000000180009bb0 f   LIBCMT:utility.obj
 0001:00008c00       atexit                     0000000180009c00 f   LIBCMT:utility.obj
 0001:00008c18       ??3@YAXPEAX@Z              0000000180009c18 f   LIBCMT:delete_scalar.obj
 0001:00008c20       ??3@YAXPEAX_K@Z            0000000180009c20 f   LIBCMT:delete_scalar_size.obj
 0001:00008c28       ??_U@YAPEAX_K@Z            0000000180009c28 f   LIBCMT:new_array.obj
 0001:00008fa0       _DllMainCRTStartup         0000000180009fa0 f   LIBCMT:dll_dllmain.obj
 0001:00008fe0       ??_Gtype_info@@UEAAPEAXI@Z 0000000180009fe0 f i LIBCMT:std_type_info_static.obj
 0001:00008fe0       ??_Etype_info@@UEAAPEAXI@Z 0000000180009fe0 f i LIBCMT:std_type_info_static.obj
 0001:0000900c       ??0bad_array_new_length@std@@QEAA@AEBV01@@Z 000000018000a00c f i LIBCMT:throw_bad_alloc.obj
 0001:0000904c       ??0bad_array_new_length@std@@QEAA@XZ 000000018000a04c f i LIBCMT:throw_bad_alloc.obj
 0001:0000906c       ?__scrt_throw_std_bad_array_new_length@@YAXXZ 000000018000a06c f   LIBCMT:throw_bad_alloc.obj
 0001:0000908c       __isa_available_init       000000018000a08c f   LIBCMT:_cpu_disp_.obj
 0001:00009250       __scrt_is_ucrt_dll_in_use  000000018000a250 f   LIBCMT:ucrt_detection.obj
 0001:0000925c       __crt_debugger_hook        000000018000a25c f   LIBCMT:utility_desktop.obj
 0001:00009264       __scrt_fastfail            000000018000a264 f   LIBCMT:utility_desktop.obj
 0001:000093ac       _guard_check_icall         000000018000a3ac f i LIBCMT:checkcfg.obj
 0001:000093b4       __security_init_cookie     000000018000a3b4 f   LIBCMT:gs_support.obj
 0001:00009460       DllMain                    000000018000a460 f   LIBCMT:dll_dllmain_stub.obj
 0001:00009460       _get_startup_argv_mode     000000018000a460 f   LIBCMT:argv_mode.obj
 0001:00009468       ?__scrt_initialize_type_info@@YAXXZ 000000018000a468 f   LIBCMT:tncleanup.obj
 0001:00009478       ?__scrt_uninitialize_type_info@@YAXXZ 000000018000a478 f   LIBCMT:tncleanup.obj
 0001:00009484       __local_stdio_printf_options 000000018000a484 f i LIBCMT:default_local_stdio_options.obj
 0001:0000948c       __local_stdio_scanf_options 000000018000a48c f i LIBCMT:default_local_stdio_options.obj
 0001:00009494       __scrt_initialize_default_local_stdio_options 000000018000a494 f   LIBCMT:default_local_stdio_options.obj
 0001:000094b0       __scrt_get_dyn_tls_init_callback 000000018000a4b0 f   LIBCMT:dyn_tls_init.obj
 0001:000094b8       _RTC_Initialize            000000018000a4b8 f   LIBCMT:_initsect_.obj
 0001:00009504       _RTC_Terminate             000000018000a504 f   LIBCMT:_initsect_.obj
 0001:00009550       __except_validate_context_record 000000018000a550 f i libvcruntime:jbcxrval.obj
 0001:00009550       _guard_check_icall_nop     000000018000a550 f i LIBCMT:guard_support.obj
 0001:00009570       memcpy                     000000018000a570 f   libvcruntime:memcpy.obj
 0001:00009570       memmove                    000000018000a570 f   libvcruntime:memcpy.obj
 0001:000099a8       __std_exception_copy       000000018000a9a8 f   libvcruntime:std_exception.obj
 0001:00009a38       __std_exception_destroy    000000018000aa38 f   libvcruntime:std_exception.obj
 0001:00009a60       _CxxThrowException         000000018000aa60 f   libvcruntime:throw.obj
 0001:00009b38       __vcrt_initialize          000000018000ab38 f   libvcruntime:initialization.obj
 0001:00009b70       __vcrt_thread_attach       000000018000ab70 f   libvcruntime:initialization.obj
 0001:00009b84       __vcrt_thread_detach       000000018000ab84 f   libvcruntime:initialization.obj
 0001:00009b98       __vcrt_uninitialize        000000018000ab98 f   libvcruntime:initialization.obj
 0001:00009bc4       __vcrt_uninitialize_critical 000000018000abc4 f   libvcruntime:initialization.obj
 0001:00009bd4       __C_specific_handler       000000018000abd4 f   libvcruntime:_chandler_.obj
 0001:00009dd4       __telemetry_main_invoke_trigger 000000018000add4 f   libvcruntime:telemetry.obj
 0001:00009eec       __telemetry_main_return_trigger 000000018000aeec f   libvcruntime:telemetry.obj
 0001:0000a004       __vcrt_initialize_telemetry_provider 000000018000b004 f   libvcruntime:telemetry.obj
 0001:0000a018       __vcrt_uninitialize_telemetry_provider 000000018000b018 f   libvcruntime:telemetry.obj
 0001:0000a050       memset                     000000018000b050 f   libvcruntime:memset.obj
 0001:0000a1f0       __std_type_info_destroy_list 000000018000b1f0 f   libvcruntime:std_type_info.obj
 0001:0000a21c       __vcrt_freefls             000000018000b21c f   libvcruntime:per_thread_data.obj
 0001:0000a23c       __vcrt_freeptd             000000018000b23c f   libvcruntime:per_thread_data.obj
 0001:0000a28c       __vcrt_getptd_noexit       000000018000b28c f   libvcruntime:per_thread_data.obj
 0001:0000a344       __vcrt_initialize_ptd      000000018000b344 f   libvcruntime:per_thread_data.obj
 0001:0000a384       __vcrt_uninitialize_ptd    000000018000b384 f   libvcruntime:per_thread_data.obj
 0001:0000a3a8       __vcrt_initialize_locks    000000018000b3a8 f   libvcruntime:locks.obj
 0001:0000a3f0       __vcrt_uninitialize_locks  000000018000b3f0 f   libvcruntime:locks.obj
 0001:0000a5f0       __vcrt_EventRegister       000000018000b5f0 f   libvcruntime:winapi_downlevel.obj
 0001:0000a674       __vcrt_EventSetInformation 000000018000b674 f   libvcruntime:winapi_downlevel.obj
 0001:0000a6f8       __vcrt_EventUnregister     000000018000b6f8 f   libvcruntime:winapi_downlevel.obj
 0001:0000a74c       __vcrt_EventWriteTransfer  000000018000b74c f   libvcruntime:winapi_downlevel.obj
 0001:0000a7e4       __vcrt_FlsAlloc            000000018000b7e4 f   libvcruntime:winapi_downlevel.obj
 0001:0000a838       __vcrt_FlsFree             000000018000b838 f   libvcruntime:winapi_downlevel.obj
 0001:0000a88c       __vcrt_FlsGetValue         000000018000b88c f   libvcruntime:winapi_downlevel.obj
 0001:0000a8e0       __vcrt_FlsSetValue         000000018000b8e0 f   libvcruntime:winapi_downlevel.obj
 0001:0000a948       __vcrt_InitializeCriticalSectionEx 000000018000b948 f   libvcruntime:winapi_downlevel.obj
 0001:0000a9c0       __vcrt_initialize_winapi_thunks 000000018000b9c0 f   libvcruntime:winapi_downlevel.obj
 0001:0000a9f8       __vcrt_uninitialize_winapi_thunks 000000018000b9f8 f   libvcruntime:winapi_downlevel.obj
 0001:0000aa38       __vcrt_initialize_pure_virtual_call_handler 000000018000ba38 f   libvcruntime:purevirt_data.obj
 0001:0000aa70       _local_unwind              000000018000ba70 f   libvcruntime:_jmpuwind_.obj
 0001:0000aaa0       _NLG_Notify                000000018000baa0 f   libvcruntime:_jmpuwind_.obj
 0001:0000aac0       __NLG_Dispatch2            000000018000bac0 f   libvcruntime:_jmpuwind_.obj
 0001:0000aad0       __NLG_Return2              000000018000bad0 f   libvcruntime:_jmpuwind_.obj
 0001:0000b4bc       ??$ftprintf@PEAU_iobuf@@PEB_WAEBQEB_WAEBQEB_WAEBI@?$__crt_char_traits@_W@@SAH$$QEAPEAU_iobuf@@$$QEAPEB_WAEBQEB_W2AEBI@Z 000000018000c4bc f i libucrt:assert.obj
 0001:0000b4e4       _wassert                   000000018000c4e4 f   libucrt:assert.obj
 0001:0000b568       fwprintf                   000000018000c568 f i libucrt:assert.obj
 0001:0000b5ac       swprintf                   000000018000c5ac f i libucrt:assert.obj
 0001:0000b600       __acrt_call_reportfault    000000018000c600 f   libucrt:invalid_parameter.obj
 0001:0000b75c       __acrt_initialize_invalid_parameter_handler 000000018000c75c f   libucrt:invalid_parameter.obj
 0001:0000b764       _invalid_parameter         000000018000c764 f   libucrt:invalid_parameter.obj
 0001:0000b80c       _invalid_parameter_noinfo  000000018000c80c f   libucrt:invalid_parameter.obj
 0001:0000b82c       _invalid_parameter_noinfo_noreturn 000000018000c82c f   libucrt:invalid_parameter.obj
 0001:0000b85c       _invoke_watson             000000018000c85c f   libucrt:invalid_parameter.obj
 0001:0000b8a4       ??0_LocaleUpdate@@QEAA@QEAU__crt_locale_pointers@@@Z 000000018000c8a4 f i libucrt:stricmp.obj
 0001:0000b934       __acrt_initialize_new_handler 000000018000c934 f   libucrt:new_handler.obj
 0001:0000b93c       _callnewh                  000000018000c93c f   libucrt:new_handler.obj
 0001:0000b97c       _query_new_handler         000000018000c97c f   libucrt:new_handler.obj
 0001:0000b9b0       malloc                     000000018000c9b0 f   libucrt:malloc.obj
 0001:0000b9b8       _seh_filter_dll            000000018000c9b8 f   libucrt:exception_filter.obj
 0001:0000b9cc       _seh_filter_exe            000000018000c9cc f   libucrt:exception_filter.obj
 0001:0000bd8c       __acrt_initialize_thread_local_exit_callback 000000018000cd8c f   libucrt:exit.obj
 0001:0000bd94       _cexit                     000000018000cd94 f   libucrt:exit.obj
 0001:0000bda4       _exit                      000000018000cda4 f   libucrt:exit.obj
 0001:0000bdb0       _is_c_termination_complete 000000018000cdb0 f   libucrt:exit.obj
 0001:0000bf74       __acrt_allocate_buffer_for_argv 000000018000cf74 f   libucrt:argv_parsing.obj
 0001:0000bfd8       _configure_narrow_argv     000000018000cfd8 f   libucrt:argv_parsing.obj
 0001:0000c334       __dcrt_uninitialize_environments_nolock 000000018000d334 f   libucrt:environment_initialization.obj
 0001:0000c36c       _initialize_narrow_environment 000000018000d36c f   libucrt:environment_initialization.obj
 0001:0000c374       ??$?RV<lambda_b8c45f8f788dd370798f47cfe8ac3a86>@@AEAV<lambda_4e60a939b0d047cfe11ddc22648dfba9>@@V<lambda_332c3edc96d0294ec56c57d38c1cdfd5>@@@?$__crt_seh_guarded_call@H@@QEAAH$$QEAV<lambda_b8c45f8f788dd370798f47cfe8ac3a86>@@AEAV<lambda_4e60a939b0d047cfe11ddc22648dfba9>@@$$QEAV<lambda_332c3edc96d0294ec56c57d38c1cdfd5>@@@Z 000000018000d374 f i libucrt:onexit.obj
 0001:0000c3b0       ??$?RV<lambda_e24bbb7b643b32fcea6fa61b31d4c984>@@AEAV<lambda_275893d493268fdec8709772e3fcec0e>@@V<lambda_9d71df4d7cf3f480f8d633942495c3b0>@@@?$__crt_seh_guarded_call@H@@QEAAH$$QEAV<lambda_e24bbb7b643b32fcea6fa61b31d4c984>@@AEAV<lambda_275893d493268fdec8709772e3fcec0e>@@$$QEAV<lambda_9d71df4d7cf3f480f8d633942495c3b0>@@@Z 000000018000d3b0 f i libucrt:onexit.obj
 0001:0000c72c       _crt_atexit                000000018000d72c f   libucrt:onexit.obj
 0001:0000c73c       _execute_onexit_table      000000018000d73c f   libucrt:onexit.obj
 0001:0000c778       _initialize_onexit_table   000000018000d778 f   libucrt:onexit.obj
 0001:0000c7b8       _register_onexit_function  000000018000d7b8 f   libucrt:onexit.obj
 0001:0000c848       __acrt_uninitialize_command_line 000000018000d848 f   libucrt:argv_data.obj
 0001:0000c938       __acrt_initialize          000000018000d938 f   libucrt:initialization.obj
 0001:0000c94c       __acrt_thread_attach       000000018000d94c f   libucrt:initialization.obj
 0001:0000c960       __acrt_thread_detach       000000018000d960 f   libucrt:initialization.obj
 0001:0000c970       __acrt_uninitialize        000000018000d970 f   libucrt:initialization.obj
 0001:0000c984       __acrt_uninitialize_critical 000000018000d984 f   libucrt:initialization.obj
 0001:0000c994       free                       000000018000d994 f   libucrt:free.obj
 0001:0000c99c       _initterm                  000000018000d99c f   libucrt:initterm.obj
 0001:0000ca14       _initterm_e                000000018000da14 f   libucrt:initterm.obj
 0001:0000ca60       terminate                  000000018000da60 f   libucrt:terminate.obj
 0001:0000ca88       strcpy_s                   000000018000da88 f   libucrt:strcpy_s.obj
 0001:0000cae8       _free_base                 000000018000dae8 f   libucrt:free_base.obj
 0001:0000cb28       _malloc_base               000000018000db28 f   libucrt:malloc_base.obj
 0001:0000cb88       abort                      000000018000db88 f   libucrt:abort.obj
 0001:0000cbe0       _calloc_base               000000018000dbe0 f   libucrt:calloc_base.obj
 0001:0000cc58       ??$?RV<lambda_7b91131dde12e1c3dfc74ff76b3f2eac>@@AEAV<lambda_dd75445284c072d0bd3768540cc698fa>@@V<lambda_16bc4ecb55b4718497c16bceaea2ceaf>@@@?$__crt_seh_guarded_call@H@@QEAAH$$QEAV<lambda_7b91131dde12e1c3dfc74ff76b3f2eac>@@AEAV<lambda_dd75445284c072d0bd3768540cc698fa>@@$$QEAV<lambda_16bc4ecb55b4718497c16bceaea2ceaf>@@@Z 000000018000dc58 f i libucrt:output.obj
 0001:0000cc98       ??$ensure_buffer_is_big_enough@D@formatting_buffer@__crt_stdio_output@@QEAA_N_K@Z 000000018000dc98 f i libucrt:output.obj
 0001:0000cd44       ??$is_wide_character_specifier@_W@__crt_stdio_output@@YA_N_K_WW4length_modifier@0@@Z 000000018000dd44 f i libucrt:output.obj
 0001:0000cd88       ??$type_case_integer_parse_into_buffer@I@?$output_processor@_WV?$string_output_adapter@_W@__crt_stdio_output@@V?$standard_base@_WV?$string_output_adapter@_W@__crt_stdio_output@@@2@@__crt_stdio_output@@AEAAXII_N@Z 000000018000dd88 f i libucrt:output.obj
 0001:0000cd88       ??$type_case_integer_parse_into_buffer@I@?$output_processor@_WV?$stream_output_adapter@_W@__crt_stdio_output@@V?$standard_base@_WV?$stream_output_adapter@_W@__crt_stdio_output@@@2@@__crt_stdio_output@@AEAAXII_N@Z 000000018000dd88 f i libucrt:output.obj
 0001:0000ce24       ??$type_case_integer_parse_into_buffer@_K@?$output_processor@_WV?$string_output_adapter@_W@__crt_stdio_output@@V?$standard_base@_WV?$string_output_adapter@_W@__crt_stdio_output@@@2@@__crt_stdio_output@@AEAAX_KI_N@Z 000000018000de24 f i libucrt:output.obj
 0001:0000ce24       ??$type_case_integer_parse_into_buffer@_K@?$output_processor@_WV?$stream_output_adapter@_W@__crt_stdio_output@@V?$standard_base@_WV?$stream_output_adapter@_W@__crt_stdio_output@@@2@@__crt_stdio_output@@AEAAX_KI_N@Z 000000018000de24 f i libucrt:output.obj
 0001:0000cec0       ??$write_multiple_characters@V?$stream_output_adapter@_W@__crt_stdio_output@@D@__crt_stdio_output@@YAXAEBV?$stream_output_adapter@_W@0@DHQEAH@Z 000000018000dec0 f i libucrt:output.obj
 0001:0000cf50       ??$write_multiple_characters@V?$string_output_adapter@_W@__crt_stdio_output@@D@__crt_stdio_output@@YAXAEBV?$string_output_adapter@_W@0@DHQEAH@Z 000000018000df50 f i libucrt:output.obj
 0001:0000cfc0       ??0?$output_processor@_WV?$string_output_adapter@_W@__crt_stdio_output@@V?$standard_base@_WV?$string_output_adapter@_W@__crt_stdio_output@@@2@@__crt_stdio_output@@QEAA@AEBV?$string_output_adapter@_W@1@_KQEB_WQEAU__crt_locale_pointers@@QEAD@Z 000000018000dfc0 f i libucrt:output.obj
 0001:0000cfc0       ??0?$output_processor@_WV?$stream_output_adapter@_W@__crt_stdio_output@@V?$standard_base@_WV?$stream_output_adapter@_W@__crt_stdio_output@@@2@@__crt_stdio_output@@QEAA@AEBV?$stream_output_adapter@_W@1@_KQEB_WQEAU__crt_locale_pointers@@QEAD@Z 000000018000dfc0 f i libucrt:output.obj
 0001:0000d130       ?force_decimal_point@__crt_stdio_output@@YAXPEADQEAU__crt_locale_pointers@@@Z 000000018000e130 f i libucrt:output.obj
 0001:0000d1a0       ?parse_int_from_format_string@?$output_processor@_WV?$stream_output_adapter@_W@__crt_stdio_output@@V?$standard_base@_WV?$stream_output_adapter@_W@__crt_stdio_output@@@2@@__crt_stdio_output@@AEAA_NQEAH@Z 000000018000e1a0 f i libucrt:output.obj
 0001:0000d1a0       ?parse_int_from_format_string@?$output_processor@_WV?$string_output_adapter@_W@__crt_stdio_output@@V?$standard_base@_WV?$string_output_adapter@_W@__crt_stdio_output@@@2@@__crt_stdio_output@@AEAA_NQEAH@Z 000000018000e1a0 f i libucrt:output.obj
 0001:0000d220       ?process@?$output_processor@_WV?$stream_output_adapter@_W@__crt_stdio_output@@V?$standard_base@_WV?$stream_output_adapter@_W@__crt_stdio_output@@@2@@__crt_stdio_output@@QEAAHXZ 000000018000e220 f i libucrt:output.obj
 0001:0000d498       ?process@?$output_processor@_WV?$string_output_adapter@_W@__crt_stdio_output@@V?$standard_base@_WV?$string_output_adapter@_W@__crt_stdio_output@@@2@@__crt_stdio_output@@QEAAHXZ 000000018000e498 f i libucrt:output.obj
 0001:0000d714       ?state_case_size@?$output_processor@_WV?$stream_output_adapter@_W@__crt_stdio_output@@V?$standard_base@_WV?$stream_output_adapter@_W@__crt_stdio_output@@@2@@__crt_stdio_output@@AEAA_NXZ 000000018000e714 f i libucrt:output.obj
 0001:0000d8b8       ?state_case_size@?$output_processor@_WV?$string_output_adapter@_W@__crt_stdio_output@@V?$standard_base@_WV?$string_output_adapter@_W@__crt_stdio_output@@@2@@__crt_stdio_output@@AEAA_NXZ 000000018000e8b8 f i libucrt:output.obj
 0001:0000da5c       ?state_case_type@?$output_processor@_WV?$stream_output_adapter@_W@__crt_stdio_output@@V?$standard_base@_WV?$stream_output_adapter@_W@__crt_stdio_output@@@2@@__crt_stdio_output@@AEAA_NXZ 000000018000ea5c f i libucrt:output.obj
 0001:0000dd28       ?state_case_type@?$output_processor@_WV?$string_output_adapter@_W@__crt_stdio_output@@V?$standard_base@_WV?$string_output_adapter@_W@__crt_stdio_output@@@2@@__crt_stdio_output@@AEAA_NXZ 000000018000ed28 f i libucrt:output.obj
 0001:0000dff4       ?type_case_Z@?$output_processor@_WV?$stream_output_adapter@_W@__crt_stdio_output@@V?$standard_base@_WV?$stream_output_adapter@_W@__crt_stdio_output@@@2@@__crt_stdio_output@@AEAA_NXZ 000000018000eff4 f i libucrt:output.obj
 0001:0000dff4       ?type_case_Z@?$output_processor@_WV?$string_output_adapter@_W@__crt_stdio_output@@V?$standard_base@_WV?$string_output_adapter@_W@__crt_stdio_output@@@2@@__crt_stdio_output@@AEAA_NXZ 000000018000eff4 f i libucrt:output.obj
 0001:0000e074       ?type_case_a@?$output_processor@_WV?$stream_output_adapter@_W@__crt_stdio_output@@V?$standard_base@_WV?$stream_output_adapter@_W@__crt_stdio_output@@@2@@__crt_stdio_output@@AEAA_NXZ 000000018000f074 f i libucrt:output.obj
 0001:0000e074       ?type_case_a@?$output_processor@_WV?$string_output_adapter@_W@__crt_stdio_output@@V?$standard_base@_WV?$string_output_adapter@_W@__crt_stdio_output@@@2@@__crt_stdio_output@@AEAA_NXZ 000000018000f074 f i libucrt:output.obj
 0001:0000e2b8       ?type_case_c_tchar@?$output_processor@_WV?$string_output_adapter@_W@__crt_stdio_output@@V?$standard_base@_WV?$string_output_adapter@_W@__crt_stdio_output@@@2@@__crt_stdio_output@@AEAA_N_W@Z 000000018000f2b8 f i libucrt:output.obj
 0001:0000e2b8       ?type_case_c_tchar@?$output_processor@_WV?$stream_output_adapter@_W@__crt_stdio_output@@V?$standard_base@_WV?$stream_output_adapter@_W@__crt_stdio_output@@@2@@__crt_stdio_output@@AEAA_N_W@Z 000000018000f2b8 f i libucrt:output.obj
 0001:0000e360       ?type_case_integer@?$output_processor@_WV?$string_output_adapter@_W@__crt_stdio_output@@V?$standard_base@_WV?$string_output_adapter@_W@__crt_stdio_output@@@2@@__crt_stdio_output@@AEAA_NI_N@Z 000000018000f360 f i libucrt:output.obj
 0001:0000e360       ?type_case_integer@?$output_processor@_WV?$stream_output_adapter@_W@__crt_stdio_output@@V?$standard_base@_WV?$stream_output_adapter@_W@__crt_stdio_output@@@2@@__crt_stdio_output@@AEAA_NI_N@Z 000000018000f360 f i libucrt:output.obj
 0001:0000e500       ?type_case_n@?$output_processor@_WV?$string_output_adapter@_W@__crt_stdio_output@@V?$standard_base@_WV?$string_output_adapter@_W@__crt_stdio_output@@@2@@__crt_stdio_output@@AEAA_NXZ 000000018000f500 f i libucrt:output.obj
 0001:0000e500       ?type_case_n@?$output_processor@_WV?$stream_output_adapter@_W@__crt_stdio_output@@V?$standard_base@_WV?$stream_output_adapter@_W@__crt_stdio_output@@@2@@__crt_stdio_output@@AEAA_NXZ 000000018000f500 f i libucrt:output.obj
 0001:0000e5dc       ?type_case_s@?$output_processor@_WV?$string_output_adapter@_W@__crt_stdio_output@@V?$standard_base@_WV?$string_output_adapter@_W@__crt_stdio_output@@@2@@__crt_stdio_output@@AEAA_NXZ 000000018000f5dc f i libucrt:output.obj
 0001:0000e5dc       ?type_case_s@?$output_processor@_WV?$stream_output_adapter@_W@__crt_stdio_output@@V?$standard_base@_WV?$stream_output_adapter@_W@__crt_stdio_output@@@2@@__crt_stdio_output@@AEAA_NXZ 000000018000f5dc f i libucrt:output.obj
 0001:0000e6a4       ?write_stored_string_tchar@?$output_processor@_WV?$stream_output_adapter@_W@__crt_stdio_output@@V?$standard_base@_WV?$stream_output_adapter@_W@__crt_stdio_output@@@2@@__crt_stdio_output@@AEAA_N_W@Z 000000018000f6a4 f i libucrt:output.obj
 0001:0000e790       ?write_stored_string_tchar@?$output_processor@_WV?$string_output_adapter@_W@__crt_stdio_output@@V?$standard_base@_WV?$string_output_adapter@_W@__crt_stdio_output@@@2@@__crt_stdio_output@@AEAA_N_W@Z 000000018000f790 f i libucrt:output.obj
 0001:0000e880       ?write_string@?$stream_output_adapter@_W@__crt_stdio_output@@QEBAXQEB_WHQEAH1@Z 000000018000f880 f i libucrt:output.obj
 0001:0000e98c       ?write_string@?$string_output_adapter@_W@__crt_stdio_output@@QEBAXQEB_WHQEAH1@Z 000000018000f98c f i libucrt:output.obj
 0001:0000ea4c       __stdio_common_vfwprintf   000000018000fa4c f   libucrt:output.obj
 0001:0000ead8       __stdio_common_vswprintf   000000018000fad8 f   libucrt:output.obj
 0001:0000ed10       ??$is_overflow_condition@K@__crt_strtox@@YA_NIK@Z 000000018000fd10 f i libucrt:atox.obj
 0001:0000ed3c       ??$parse_integer@KV?$c_string_character_source@_W@__crt_strtox@@@__crt_strtox@@YAKQEAU__crt_locale_pointers@@V?$c_string_character_source@_W@0@H_N@Z 000000018000fd3c f i libucrt:atox.obj
 0001:0000f410       _query_app_type            0000000180010410 f   libucrt:report_runtime_error.obj
 0001:0000f418       __acrt_errno_from_os_error 0000000180010418 f   libucrt:errno.obj
 0001:0000f460       __acrt_errno_map_os_error  0000000180010460 f   libucrt:errno.obj
 0001:0000f4b0       __doserrno                 00000001800104b0 f   libucrt:errno.obj
 0001:0000f4d0       _errno                     00000001800104d0 f   libucrt:errno.obj
 0001:0000f618       _itow_s                    0000000180010618 f   libucrt:xtoa.obj
 0001:0000f638       _set_error_mode            0000000180010638 f   libucrt:set_error_mode.obj
 0001:0000f678       wcscat_s                   0000000180010678 f   libucrt:wcscat_s.obj
 0001:0000f6f8       wcscpy_s                   00000001800106f8 f   libucrt:wcscpy_s.obj
 0001:0000f760       wcsncat_s                  0000000180010760 f   libucrt:wcsncat_s.obj
 0001:0000f888       __acrt_show_wide_message_box 0000000180010888 f   libucrt:crtmbox.obj
 0001:0000f9a4       __acrt_initialize_stdio    00000001800109a4 f   libucrt:_file.obj
 0001:0000fac4       __acrt_iob_func            0000000180010ac4 f   libucrt:_file.obj
 0001:0000fad8       __acrt_uninitialize_stdio  0000000180010ad8 f   libucrt:_file.obj
 0001:0000fb34       _lock_file                 0000000180010b34 f   libucrt:_file.obj
 0001:0000fb40       _unlock_file               0000000180010b40 f   libucrt:_file.obj
 0001:0000fb4c       __acrt_stdio_flush_nolock  0000000180010b4c f   libucrt:fflush.obj
 0001:0000fbc4       _fflush_nolock             0000000180010bc4 f   libucrt:fflush.obj
 0001:0000fc10       _flushall                  0000000180010c10 f   libucrt:fflush.obj
 0001:0000fd00       fflush                     0000000180010d00 f   libucrt:fflush.obj
 0001:0000fd44       ??$?RV<lambda_7a5ef57ff966f610505f1d28a3d40618>@@AEAV<lambda_b721fa326cdb32351d23dfa67958c160>@@V<lambda_5e0fb27672408a07956fe59e48ccb2aa>@@@?$__crt_seh_guarded_call@H@@QEAAH$$QEAV<lambda_7a5ef57ff966f610505f1d28a3d40618>@@AEAV<lambda_b721fa326cdb32351d23dfa67958c160>@@$$QEAV<lambda_5e0fb27672408a07956fe59e48ccb2aa>@@@Z 0000000180010d44 f i libucrt:setvbuf.obj
 0001:0000fe74       setvbuf                    0000000180010e74 f   libucrt:setvbuf.obj
 0001:0000ff14       ??$?RV<lambda_c36588078e9f5dfd39652860aa6b3aaf>@@AEAV<lambda_ec61778202f4f5fc7e7711acc23c3bca>@@V<lambda_dc9d2797ccde5d239b4a0efae8ebd7db>@@@?$__crt_seh_guarded_call@P6AXH@Z@@QEAAP6AXH@Z$$QEAV<lambda_c36588078e9f5dfd39652860aa6b3aaf>@@AEAV<lambda_ec61778202f4f5fc7e7711acc23c3bca>@@$$QEAV<lambda_dc9d2797ccde5d239b4a0efae8ebd7db>@@@Z 0000000180010f14 f i libucrt:signal.obj
 0001:0000ff5c       __acrt_get_sigabrt_handler 0000000180010f5c f   libucrt:signal.obj
 0001:0000ff8c       __acrt_initialize_signal_handlers 0000000180010f8c f   libucrt:signal.obj
 0001:0000ffac       raise                      0000000180010fac f   libucrt:signal.obj
 0001:00010248       ??$?RV<lambda_46352004c1216016012b18bd6f87e700>@@AEAV<lambda_3bd07e1a1191394380780325891bf33f>@@V<lambda_334532d3f185bcaa59b5be82d7d22bff>@@@?$__crt_seh_guarded_call@X@@QEAAX$$QEAV<lambda_46352004c1216016012b18bd6f87e700>@@AEAV<lambda_3bd07e1a1191394380780325891bf33f>@@$$QEAV<lambda_334532d3f185bcaa59b5be82d7d22bff>@@@Z 0000000180011248 f i libucrt:per_thread_data.obj
 0001:000102a8       ??$?RV<lambda_5e887d1dcbef67a5eb4283622ba103bf>@@AEAV<lambda_4466841279450cc726390878d4a41900>@@V<lambda_341c25c0346d94847f1f3c463c57e077>@@@?$__crt_seh_guarded_call@X@@QEAAX$$QEAV<lambda_5e887d1dcbef67a5eb4283622ba103bf>@@AEAV<lambda_4466841279450cc726390878d4a41900>@@$$QEAV<lambda_341c25c0346d94847f1f3c463c57e077>@@@Z 00000001800112a8 f i libucrt:per_thread_data.obj
 0001:000102f0       ??$?RV<lambda_72d1df2b273a38828b1ce30cbf4cdab5>@@AEAV<lambda_876a65b173b8412d3a47c70a915b0cf4>@@V<lambda_41932305e351933ebe8f8be3ed8bb5dc>@@@?$__crt_seh_guarded_call@X@@QEAAX$$QEAV<lambda_72d1df2b273a38828b1ce30cbf4cdab5>@@AEAV<lambda_876a65b173b8412d3a47c70a915b0cf4>@@$$QEAV<lambda_41932305e351933ebe8f8be3ed8bb5dc>@@@Z 00000001800112f0 f i libucrt:per_thread_data.obj
 0001:00010330       ??$?RV<lambda_fb3a7dec4e47f37f22dae91bb15c9095>@@AEAV<lambda_698284760c8add0bfb0756c19673e34b>@@V<lambda_dfb8eca1e75fef3034a8fb18dd509707>@@@?$__crt_seh_guarded_call@X@@QEAAX$$QEAV<lambda_fb3a7dec4e47f37f22dae91bb15c9095>@@AEAV<lambda_698284760c8add0bfb0756c19673e34b>@@$$QEAV<lambda_dfb8eca1e75fef3034a8fb18dd509707>@@@Z 0000000180011330 f i libucrt:per_thread_data.obj
 0001:000105c0       __acrt_freeptd             00000001800115c0 f   libucrt:per_thread_data.obj
 0001:00010604       __acrt_getptd              0000000180011604 f   libucrt:per_thread_data.obj
 0001:00010698       __acrt_getptd_noexit       0000000180011698 f   libucrt:per_thread_data.obj
 0001:00010738       __acrt_initialize_ptd      0000000180011738 f   libucrt:per_thread_data.obj
 0001:00010774       __acrt_uninitialize_ptd    0000000180011774 f   libucrt:per_thread_data.obj
 0001:000107e8       _tolower_l                 00000001800117e8 f   libucrt:tolower_toupper.obj
 0001:00010928       tolower                    0000000180011928 f   libucrt:tolower_toupper.obj
 0001:00010954       __acrt_update_locale_info  0000000180011954 f   libucrt:locale_update.obj
 0001:00010988       __acrt_update_multibyte_info 0000000180011988 f   libucrt:locale_update.obj
 0001:000109bc       __acrt_set_locale_changed  00000001800119bc f   libucrt:wsetlocale.obj
 0001:000109c8       __acrt_uninitialize_locale 00000001800119c8 f   libucrt:wsetlocale.obj
 0001:00010a10       __acrt_initialize_locks    0000000180011a10 f   libucrt:locks.obj
 0001:00010a58       __acrt_lock                0000000180011a58 f   libucrt:locks.obj
 0001:00010a74       __acrt_uninitialize_locks  0000000180011a74 f   libucrt:locks.obj
 0001:00010aac       __acrt_unlock              0000000180011aac f   libucrt:locks.obj
 0001:00010c68       __acrt_FlsAlloc            0000000180011c68 f   libucrt:winapi_thunks.obj
 0001:00010cc0       __acrt_FlsFree             0000000180011cc0 f   libucrt:winapi_thunks.obj
 0001:00010d18       __acrt_FlsGetValue         0000000180011d18 f   libucrt:winapi_thunks.obj
 0001:00010d70       __acrt_FlsSetValue         0000000180011d70 f   libucrt:winapi_thunks.obj
 0001:00010dd8       __acrt_InitializeCriticalSectionEx 0000000180011dd8 f   libucrt:winapi_thunks.obj
 0001:00010e50       __acrt_LCMapStringEx       0000000180011e50 f   libucrt:winapi_thunks.obj
 0001:00010f40       __acrt_LocaleNameToLCID    0000000180011f40 f   libucrt:winapi_thunks.obj
 0001:00010fa8       __acrt_MessageBoxW         0000000180011fa8 f   libucrt:winapi_thunks.obj
 0001:00011030       __acrt_can_show_message_box 0000000180012030 f   libucrt:winapi_thunks.obj
 0001:0001108c       __acrt_get_parent_window   000000018001208c f   libucrt:winapi_thunks.obj
 0001:0001111c       __acrt_initialize_winapi_thunks 000000018001211c f   libucrt:winapi_thunks.obj
 0001:00011154       __acrt_is_interactive      0000000180012154 f   libucrt:winapi_thunks.obj
 0001:00011228       __acrt_is_packaged_app     0000000180012228 f   libucrt:winapi_thunks.obj
 0001:000112b0       __acrt_uninitialize_winapi_thunks 00000001800122b0 f   libucrt:winapi_thunks.obj
 0001:000117d0       ?expand_if_necessary@?$argument_list@D@?A0xca0879c4@@AEAAHXZ 00000001800127d0 f i libucrt:argv_wildcards.obj
 0001:00011898       __acrt_expand_narrow_argv_wildcards 0000000180012898 f   libucrt:argv_wildcards.obj
 0001:000118a0       ??$?RV<lambda_99476a1ad63dd22509b5d3e65b0ffc95>@@AEAV<lambda_ad1ced32f4ac17aa236e5ef05d6b3b7c>@@V<lambda_f7424dd8d45958661754dc4f2697e9c3>@@@?$__crt_seh_guarded_call@X@@QEAAX$$QEAV<lambda_99476a1ad63dd22509b5d3e65b0ffc95>@@AEAV<lambda_ad1ced32f4ac17aa236e5ef05d6b3b7c>@@$$QEAV<lambda_f7424dd8d45958661754dc4f2697e9c3>@@@Z 00000001800128a0 f i libucrt:mbctype.obj
 0001:00011f9c       __acrt_initialize_multibyte 0000000180012f9c f   libucrt:mbctype.obj
 0001:00011fc4       __acrt_update_thread_multibyte_data 0000000180012fc4 f   libucrt:mbctype.obj
 0001:00012084       _setmbcp_nolock            0000000180013084 f   libucrt:mbctype.obj
 0001:000123a4       _ismbblead                 00000001800133a4 f   libucrt:ismbbyte.obj
 0001:000123b8       __acrt_initialize_command_line 00000001800133b8 f   libucrt:argv_data.obj
 0001:000123e0       __dcrt_get_narrow_environment_from_os 00000001800133e0 f   libucrt:get_environment_from_os.obj
 0001:000124e4       _recalloc                  00000001800134e4 f   libucrt:recalloc.obj
 0001:000124ec       _recalloc_base             00000001800134ec f   libucrt:recalloc.obj
 0001:00012584       __acrt_initialize_heap     0000000180013584 f   libucrt:heap_handle.obj
 0001:000125a0       __acrt_uninitialize_heap   00000001800135a0 f   libucrt:heap_handle.obj
 0001:00012794       __acrt_initialize_lowio    0000000180013794 f   libucrt:ioinit.obj
 0001:000127d0       __acrt_uninitialize_lowio  00000001800137d0 f   libucrt:ioinit.obj
 0001:00012810       __acrt_execute_initializers 0000000180013810 f   libucrt:shared_initialization.obj
 0001:000128a4       __acrt_execute_uninitializers 00000001800138a4 f   libucrt:shared_initialization.obj
 0001:000128f4       __acrt_has_user_matherr    00000001800138f4 f   libucrt:matherr.obj
 0001:00012914       __acrt_initialize_user_matherr 0000000180013914 f   libucrt:matherr.obj
 0001:0001291c       __acrt_invoke_user_matherr 000000018001391c f   libucrt:matherr.obj
 0001:00012964       __acrt_stdio_begin_temporary_buffering_nolock 0000000180013964 f   libucrt:_sftbuf.obj
 0001:00012a34       __acrt_stdio_end_temporary_buffering_nolock 0000000180013a34 f   libucrt:_sftbuf.obj
 0001:00012a70       _query_new_mode            0000000180013a70 f   libucrt:new_mode.obj
 0001:00012a78       isdigit                    0000000180013a78 f i libucrt:_ctype.obj
 0001:00012aec       ??$make_c_string_character_source@_WPEAPEA_W@__crt_strtox@@YA?AV?$c_string_character_source@_W@0@QEB_WQEAPEA_W@Z 0000000180013aec f i libucrt:strtox.obj
 0001:00012b00       wcstol                     0000000180013b00 f   libucrt:strtox.obj
 0001:00012b30       _mbtowc_l                  0000000180013b30 f   libucrt:mbtowc.obj
 0001:00012c78       mbtowc                     0000000180013c78 f   libucrt:mbtowc.obj
 0001:00012c80       _wctomb_s_l                0000000180013c80 f   libucrt:wctomb.obj
 0001:00012e04       wctomb_s                   0000000180013e04 f   libucrt:wctomb.obj
 0001:00012e18       wcsnlen                    0000000180013e18 f   libucrt:strnlen.obj
 0001:00013008       ?__acrt_fp_classify@@YA?AW4__acrt_fp_class@@AEBN@Z 0000000180014008 f i libucrt:cvt.obj
 0001:00013a40       __acrt_fp_format           0000000180014a40 f   libucrt:cvt.obj
 0001:00013c84       _fputwc_nolock             0000000180014c84 f   libucrt:fputwc.obj
 0001:00013e00       _fileno                    0000000180014e00 f   libucrt:fileno.obj
 0001:00013e28       _fputc_nolock              0000000180014e28 f   libucrt:fputc.obj
 0001:00013e40       _get_printf_count_output   0000000180014e40 f   libucrt:printf_count_output.obj
 0001:00013e58       __pctype_func              0000000180014e58 f   libucrt:ctype.obj
 0001:00013e88       iswctype                   0000000180014e88 f   libucrt:iswctype.obj
 0001:00013ef8       _isctype_l                 0000000180014ef8 f   libucrt:isctype.obj
 0001:00014008       _fcloseall                 0000000180015008 f   libucrt:closeall.obj
 0001:000140bc       __acrt_stdio_free_buffer_nolock 00000001800150bc f   libucrt:_freebuf.obj
 0001:000140fc       ??$?RV<lambda_b521505b218e5242e90febf6bfebc422>@@AEAV<lambda_6978c1fb23f02e42e1d9e99668cc68aa>@@V<lambda_314360699dd331753a4119843814e9a7>@@@?$__crt_seh_guarded_call@H@@QEAAH$$QEAV<lambda_b521505b218e5242e90febf6bfebc422>@@AEAV<lambda_6978c1fb23f02e42e1d9e99668cc68aa>@@$$QEAV<lambda_314360699dd331753a4119843814e9a7>@@@Z 00000001800150fc f i libucrt:commit.obj
 0001:00014188       _commit                    0000000180015188 f   libucrt:commit.obj
 0001:000147bc       _write                     00000001800157bc f   libucrt:write.obj
 0001:000148a8       _write_nolock              00000001800158a8 f   libucrt:write.obj
 0001:00014b8c       __acrt_add_locale_ref      0000000180015b8c f   libucrt:locale_refcounting.obj
 0001:00014c18       __acrt_free_locale         0000000180015c18 f   libucrt:locale_refcounting.obj
 0001:00014d90       __acrt_locale_add_lc_time_reference 0000000180015d90 f   libucrt:locale_refcounting.obj
 0001:00014db8       __acrt_locale_free_lc_time_if_unreferenced 0000000180015db8 f   libucrt:locale_refcounting.obj
 0001:00014df0       __acrt_locale_release_lc_time_reference 0000000180015df0 f   libucrt:locale_refcounting.obj
 0001:00014e18       __acrt_release_locale_ref  0000000180015e18 f   libucrt:locale_refcounting.obj
 0001:00014ec0       __acrt_update_thread_locale_data 0000000180015ec0 f   libucrt:locale_refcounting.obj
 0001:00014f30       _updatetlocinfoEx_nolock   0000000180015f30 f   libucrt:locale_refcounting.obj
 0001:00014f98       _isleadbyte_l              0000000180015f98 f i libucrt:_wctype.obj
 0001:00015334       __acrt_LCMapStringA        0000000180016334 f   libucrt:lcmapstringa.obj
 0001:000153cc       __acrt_locale_free_monetary 00000001800163cc f   libucrt:initmon.obj
 0001:000154d8       __acrt_locale_free_numeric 00000001800164d8 f   libucrt:initnum.obj
 0001:0001559c       __acrt_locale_free_time    000000018001659c f   libucrt:inittime.obj
 0001:000156a4       __acrt_GetStringTypeA      00000001800166a4 f   libucrt:getstringtypea.obj
 0001:00015920       __acrt_DownlevelLocaleNameToLCID 0000000180016920 f   libucrt:lcidtoname_downlevel.obj
 0001:00015a30       qsort                      0000000180016a30 f   libucrt:qsort.obj
 0001:00015d64       strncpy_s                  0000000180016d64 f   libucrt:strncpy_s.obj
 0001:00015e38       strpbrk                    0000000180016e38 f   libucrt:strpbrk.obj
 0001:00015ed8       _mbsdec                    0000000180016ed8 f   libucrt:mbsdec.obj
 0001:00015ee0       _mbsdec_l                  0000000180016ee0 f   libucrt:mbsdec.obj
 0001:00015f90       _msize                     0000000180016f90 f   libucrt:msize.obj
 0001:00015fcc       _realloc_base              0000000180016fcc f   libucrt:realloc_base.obj
 0001:00016050       __acrt_lowio_create_handle_array 0000000180017050 f   libucrt:osfinfo.obj
 0001:000160e8       __acrt_lowio_destroy_handle_array 00000001800170e8 f   libucrt:osfinfo.obj
 0001:00016138       __acrt_lowio_ensure_fh_exists 0000000180017138 f   libucrt:osfinfo.obj
 0001:000161f0       __acrt_lowio_lock_fh       00000001800171f0 f   libucrt:osfinfo.obj
 0001:00016214       __acrt_lowio_unlock_fh     0000000180017214 f   libucrt:osfinfo.obj
 0001:00016238       _free_osfhnd               0000000180017238 f   libucrt:osfinfo.obj
 0001:000162f4       _get_osfhandle             00000001800172f4 f   libucrt:osfinfo.obj
 0001:0001636c       _isatty                    000000018001736c f   libucrt:isatty.obj
 0001:000163cc       __acrt_fp_strflt_to_string 00000001800173cc f   libucrt:_fptostr.obj
 0001:00016490       ?divide@__crt_strtox@@YA_KAEAUbig_integer@1@AEBU21@@Z 0000000180017490 f i libucrt:cfout.obj
 0001:00016960       __acrt_fltout              0000000180017960 f   libucrt:cfout.obj
 0001:00017f64       __acrt_stdio_flush_and_write_narrow_nolock 0000000180018f64 f   libucrt:_flsbuf.obj
 0001:0001804c       __acrt_stdio_flush_and_write_wide_nolock 000000018001904c f   libucrt:_flsbuf.obj
 0001:00018138       _fclose_nolock             0000000180019138 f   libucrt:fclose.obj
 0001:000181bc       fclose                     00000001800191bc f   libucrt:fclose.obj
 0001:000183b4       _lseeki64                  00000001800193b4 f   libucrt:lseek.obj
 0001:000183bc       _lseeki64_nolock           00000001800193bc f   libucrt:lseek.obj
 0001:000183c4       _putwch_nolock             00000001800193c4 f   libucrt:putwch.obj
 0001:00018420       __strncnt                  0000000180019420 f   libucrt:strncnt.obj
 0001:00018438       fegetenv                   0000000180019438 f   libucrt:fegetenv.obj
 0001:00018458       fesetenv                   0000000180019458 f   libucrt:fesetenv.obj
 0001:000184a4       feholdexcept               00000001800194a4 f   libucrt:feholdexcept.obj
 0001:000184f4       ceil                       00000001800194f4 f   libucrt:ceil.obj
 0001:000185c0       log10                      00000001800195c0 f   libucrt:log10.obj
 0001:00018b6c       __acrt_stdio_allocate_buffer_nolock 0000000180019b6c f   libucrt:_getbuf.obj
 0001:00018bd0       ??$?RV<lambda_bfedae4ebbf01fab1bb6dcc6a9e276e0>@@AEAV<lambda_2fe9b910cf3cbf4a0ab98a02ba45b3ec>@@V<lambda_237c231691f317818eb88cc1d5d642d6>@@@?$__crt_seh_guarded_call@H@@QEAAH$$QEAV<lambda_bfedae4ebbf01fab1bb6dcc6a9e276e0>@@AEAV<lambda_2fe9b910cf3cbf4a0ab98a02ba45b3ec>@@$$QEAV<lambda_237c231691f317818eb88cc1d5d642d6>@@@Z 0000000180019bd0 f i libucrt:close.obj
 0001:00018c44       _close                     0000000180019c44 f   libucrt:close.obj
 0001:00018ce8       _close_nolock              0000000180019ce8 f   libucrt:close.obj
 0001:00018da4       ?__acrt_stdio_free_stream@@YAXV__crt_stdio_stream@@@Z 0000000180019da4 f   libucrt:stream.obj
 0001:00018de8       __dcrt_lowio_initialize_console_output 0000000180019de8 f   libucrt:initcon.obj
 0001:00018e24       __dcrt_terminate_console_output 0000000180019e24 f   libucrt:initcon.obj
 0001:00018e44       _getfpcontrolword          0000000180019e44 f   libucrt:_fenvutils.obj
 0001:00018e5c       _getfpstatusword           0000000180019e5c f   libucrt:_fenvutils.obj
 0001:00018e70       _setfpcontrolword          0000000180019e70 f   libucrt:_fenvutils.obj
 0001:00018e7c       _setfpstatusword           0000000180019e7c f   libucrt:_fenvutils.obj
 0001:00018ecc       _clearfp                   0000000180019ecc f   libucrt:ieee.obj
 0001:00018f20       _controlfp                 0000000180019f20 f   libucrt:ieee.obj
 0001:00018f2c       _statusfp                  0000000180019f2c f   libucrt:ieee.obj
 0001:00019330       _handle_error              000000018001a330 f   libucrt:libm_error.obj
 0001:00019458       _handle_errorf             000000018001a458 f   libucrt:libm_error.obj
 0001:0001958c       _handle_nan                000000018001a58c f   libucrt:libm_error.obj
 0001:000195a8       _handle_nanf               000000018001a5a8 f   libucrt:libm_error.obj
 0001:000195c0       __acrt_initialize_fma3     000000018001a5c0 f   libucrt:fma3_available.obj
 0001:00019630       _log10_special             000000018001a630 f   libucrt:log_special.obj
 0001:00019700       _get_fpsr                  000000018001a700 f   libucrt:fpsr.obj
 0001:00019710       _set_fpsr                  000000018001a710 f   libucrt:fpsr.obj
 0001:0001971a       _fclrf                     000000018001a71a f   libucrt:fpsr.obj
 0001:0001972e       _frnd                      000000018001a72e f   libucrt:fpsr.obj
 0001:00019750       _raise_exc                 000000018001a750 f   libucrt:fpexcept.obj
 0001:00019778       _raise_exc_ex              000000018001a778 f   libucrt:fpexcept.obj
 0001:00019a80       _raise_excf                000000018001aa80 f   libucrt:fpexcept.obj
 0001:00019aac       _set_errno_from_matherr    000000018001aaac f   libucrt:fpexcept.obj
 0001:00019adc       _clrfp                     000000018001aadc f   libucrt:fpctrl.obj
 0001:00019afc       _ctrlfp                    000000018001aafc f   libucrt:fpctrl.obj
 0001:00019b78       _set_statfp                000000018001ab78 f   libucrt:fpctrl.obj
 0001:00019b98       _statfp                    000000018001ab98 f   libucrt:fpctrl.obj
 0001:00019baa       IsProcessorFeaturePresent  000000018001abaa f   kernel32:KERNEL32.dll
 0001:00019bb0       RtlUnwindEx                000000018001abb0 f   kernel32:KERNEL32.dll
 0001:00019bb6       SystemFunction036          000000018001abb6 f   advapi32:ADVAPI32.dll
 0001:00019bc0       _FindPESection             000000018001abc0 f   LIBCMT:pesect.obj
 0001:00019c10       _IsNonwritableInCurrentImage 000000018001ac10 f   LIBCMT:pesect.obj
 0001:00019c60       _ValidateImageBase         000000018001ac60 f   LIBCMT:pesect.obj
 0001:00019c90       __GSHandlerCheck           000000018001ac90 f   LIBCMT:_gshandler_.obj
 0001:00019cb0       __GSHandlerCheckCommon     000000018001acb0 f   LIBCMT:_gshandler_.obj
 0001:00019d20       __chkstk                   000000018001ad20 f   LIBCMT:_chkstk_.obj
 0001:00019d20       _alloca_probe              000000018001ad20 f   LIBCMT:_chkstk_.obj
 0001:00019d90       memcmp                     000000018001ad90 f   libvcruntime:memcmp.obj
 0001:00019e58       strrchr                    000000018001ae58 f   libvcruntime:strrchr.obj
 0001:00019f9c       atanf                      000000018001af9c f   libucrt:atanf.obj
 0001:0001a1a0       cosf                       000000018001b1a0 f   libucrt:cosf.obj
 0001:0001a6a0       floorf                     000000018001b6a0 f   libucrt:floorf.obj
 0001:0001a730       sinf                       000000018001b730 f   libucrt:sinf.obj
 0001:0001ae30       __remainder_piby2d2f_forAsm 000000018001be30 f   libucrt:remainder_piby2f_forasm.obj
 0001:0001af80       __remainder_piby2_fma3     000000018001bf80 f   libucrt:remainder_piby2_forfma3.obj
 0001:0001b170       __remainder_piby2_fma3_bdl 000000018001c170 f   libucrt:remainder_piby2_forfma3.obj
 0001:0001b1e8       _cosf_special              000000018001c1e8 f   libucrt:sincos_special.obj
 0001:0001b288       _sinf_special              000000018001c288 f   libucrt:sincos_special.obj
 0001:0001b2a0       __remainder_piby2d2f_forC  000000018001c2a0 f   libucrt:remainder_piby2f_forc.obj
 0001:0001b440       _guard_dispatch_icall_nop  000000018001c440 f   LIBCMT:_guard_dispatch_.obj
 0002:00000000       __imp_SystemFunction036    000000018001d000     advapi32:ADVAPI32.dll
 0002:00000008       \177ADVAPI32_NULL_THUNK_DATA 000000018001d008     advapi32:ADVAPI32.dll
 0002:00000010       __imp_CreateFileW          000000018001d010     kernel32:KERNEL32.dll
 0002:00000018       __imp_SetFilePointerEx     000000018001d018     kernel32:KERNEL32.dll
 0002:00000020       __imp_SetStdHandle         000000018001d020     kernel32:KERNEL32.dll
 0002:00000028       __imp_HeapReAlloc          000000018001d028     kernel32:KERNEL32.dll
 0002:00000030       __imp_HeapSize             000000018001d030     kernel32:KERNEL32.dll
 0002:00000038       __imp_GetConsoleMode       000000018001d038     kernel32:KERNEL32.dll
 0002:00000040       __imp_GetConsoleCP         000000018001d040     kernel32:KERNEL32.dll
 0002:00000048       __imp_FlushFileBuffers     000000018001d048     kernel32:KERNEL32.dll
 0002:00000050       __imp_GetStringTypeW       000000018001d050     kernel32:KERNEL32.dll
 0002:00000058       __imp_GetProcessHeap       000000018001d058     kernel32:KERNEL32.dll
 0002:00000060       __imp_FreeEnvironmentStringsW 000000018001d060     kernel32:KERNEL32.dll
 0002:00000068       __imp_GetEnvironmentStringsW 000000018001d068     kernel32:KERNEL32.dll
 0002:00000070       __imp_GetCommandLineW      000000018001d070     kernel32:KERNEL32.dll
 0002:00000078       __imp_GetCommandLineA      000000018001d078     kernel32:KERNEL32.dll
 0002:00000080       __imp_GetCPInfo            000000018001d080     kernel32:KERNEL32.dll
 0002:00000088       __imp_GetOEMCP             000000018001d088     kernel32:KERNEL32.dll
 0002:00000090       __imp_IsValidCodePage      000000018001d090     kernel32:KERNEL32.dll
 0002:00000098       __imp_FindNextFileA        000000018001d098     kernel32:KERNEL32.dll
 0002:000000a0       __imp_FindFirstFileExA     000000018001d0a0     kernel32:KERNEL32.dll
 0002:000000a8       __imp_FindClose            000000018001d0a8     kernel32:KERNEL32.dll
 0002:000000b0       __imp_LCMapStringW         000000018001d0b0     kernel32:KERNEL32.dll
 0002:000000b8       __imp_GetACP               000000018001d0b8     kernel32:KERNEL32.dll
 0002:000000c0       __imp_CreateThread         000000018001d0c0     kernel32:KERNEL32.dll
 0002:000000c8       __imp_WaitForSingleObjectEx 000000018001d0c8     kernel32:KERNEL32.dll
 0002:000000d0       __imp_CloseHandle          000000018001d0d0     kernel32:KERNEL32.dll
 0002:000000d8       __imp_OutputDebugStringW   000000018001d0d8     kernel32:KERNEL32.dll
 0002:000000e0       __imp_WriteFile            000000018001d0e0     kernel32:KERNEL32.dll
 0002:000000e8       __imp_HeapAlloc            000000018001d0e8     kernel32:KERNEL32.dll
 0002:000000f0       __imp_HeapFree             000000018001d0f0     kernel32:KERNEL32.dll
 0002:000000f8       __imp_WideCharToMultiByte  000000018001d0f8     kernel32:KERNEL32.dll
 0002:00000100       __imp_MultiByteToWideChar  000000018001d100     kernel32:KERNEL32.dll
 0002:00000108       __imp_ExitProcess          000000018001d108     kernel32:KERNEL32.dll
 0002:00000110       __imp_WriteConsoleW        000000018001d110     kernel32:KERNEL32.dll
 0002:00000118       __imp_GetModuleHandleExW   000000018001d118     kernel32:KERNEL32.dll
 0002:00000120       __imp_GetModuleFileNameA   000000018001d120     kernel32:KERNEL32.dll
 0002:00000128       __imp_GetFileType          000000018001d128     kernel32:KERNEL32.dll
 0002:00000130       __imp_GetStdHandle         000000018001d130     kernel32:KERNEL32.dll
 0002:00000138       __imp_LoadLibraryExW       000000018001d138     kernel32:KERNEL32.dll
 0002:00000140       __imp_GetProcAddress       000000018001d140     kernel32:KERNEL32.dll
 0002:00000148       __imp_FreeLibrary          000000018001d148     kernel32:KERNEL32.dll
 0002:00000150       __imp_TlsFree              000000018001d150     kernel32:KERNEL32.dll
 0002:00000158       __imp_TlsSetValue          000000018001d158     kernel32:KERNEL32.dll
 0002:00000160       __imp_TlsGetValue          000000018001d160     kernel32:KERNEL32.dll
 0002:00000168       __imp_RtlCaptureContext    000000018001d168     kernel32:KERNEL32.dll
 0002:00000170       __imp_RtlLookupFunctionEntry 000000018001d170     kernel32:KERNEL32.dll
 0002:00000178       __imp_RtlVirtualUnwind     000000018001d178     kernel32:KERNEL32.dll
 0002:00000180       __imp_UnhandledExceptionFilter 000000018001d180     kernel32:KERNEL32.dll
 0002:00000188       __imp_SetUnhandledExceptionFilter 000000018001d188     kernel32:KERNEL32.dll
 0002:00000190       __imp_GetCurrentProcess    000000018001d190     kernel32:KERNEL32.dll
 0002:00000198       __imp_TerminateProcess     000000018001d198     kernel32:KERNEL32.dll
 0002:000001a0       __imp_IsProcessorFeaturePresent 000000018001d1a0     kernel32:KERNEL32.dll
 0002:000001a8       __imp_IsDebuggerPresent    000000018001d1a8     kernel32:KERNEL32.dll
 0002:000001b0       __imp_GetStartupInfoW      000000018001d1b0     kernel32:KERNEL32.dll
 0002:000001b8       __imp_GetModuleHandleW     000000018001d1b8     kernel32:KERNEL32.dll
 0002:000001c0       __imp_QueryPerformanceCounter 000000018001d1c0     kernel32:KERNEL32.dll
 0002:000001c8       __imp_GetCurrentProcessId  000000018001d1c8     kernel32:KERNEL32.dll
 0002:000001d0       __imp_GetCurrentThreadId   000000018001d1d0     kernel32:KERNEL32.dll
 0002:000001d8       __imp_GetSystemTimeAsFileTime 000000018001d1d8     kernel32:KERNEL32.dll
 0002:000001e0       __imp_InitializeSListHead  000000018001d1e0     kernel32:KERNEL32.dll
 0002:000001e8       __imp_RtlPcToFileHeader    000000018001d1e8     kernel32:KERNEL32.dll
 0002:000001f0       __imp_RaiseException       000000018001d1f0     kernel32:KERNEL32.dll
 0002:000001f8       __imp_RtlUnwindEx          000000018001d1f8     kernel32:KERNEL32.dll
 0002:00000200       __imp_GetLastError         000000018001d200     kernel32:KERNEL32.dll
 0002:00000208       __imp_GetModuleFileNameW   000000018001d208     kernel32:KERNEL32.dll
 0002:00000210       __imp_InterlockedFlushSList 000000018001d210     kernel32:KERNEL32.dll
 0002:00000218       __imp_SetLastError         000000018001d218     kernel32:KERNEL32.dll
 0002:00000220       __imp_EnterCriticalSection 000000018001d220     kernel32:KERNEL32.dll
 0002:00000228       __imp_LeaveCriticalSection 000000018001d228     kernel32:KERNEL32.dll
 0002:00000230       __imp_DeleteCriticalSection 000000018001d230     kernel32:KERNEL32.dll
 0002:00000238       __imp_InitializeCriticalSectionAndSpinCount 000000018001d238     kernel32:KERNEL32.dll
 0002:00000240       __imp_TlsAlloc             000000018001d240     kernel32:KERNEL32.dll
 0002:00000248       \177KERNEL32_NULL_THUNK_DATA 000000018001d248     kernel32:KERNEL32.dll
 0002:00000250       __imp_GetDefaultKinectSensor 000000018001d250     kinect20:Kinect20.dll
 0002:00000258       \177Kinect20_NULL_THUNK_DATA 000000018001d258     kinect20:Kinect20.dll
 0002:00000260       __imp_uv_default_loop      000000018001d260     iojs:node.dll
 0002:00000268       __imp_uv_async_init        000000018001d268     iojs:node.dll
 0002:00000270       __imp_uv_thread_join       000000018001d270     iojs:node.dll
 0002:00000278       __imp_uv_async_send        000000018001d278     iojs:node.dll
 0002:00000280       __imp_uv_mutex_init        000000018001d280     iojs:node.dll
 0002:00000288       __imp_uv_thread_create     000000018001d288     iojs:node.dll
 0002:00000290       __imp_?MakeCallback@node@@YA?AV?$Local@VValue@v8@@@v8@@PEAVIsolate@3@V?$Local@VObject@v8@@@3@V?$Local@VFunction@v8@@@3@HPEAV23@@Z 000000018001d290     iojs:node.dll
 0002:00000298       __imp_?New@Buffer@node@@YA?AV?$MaybeLocal@VObject@v8@@@v8@@PEAVIsolate@4@PEAD_K@Z 000000018001d298     iojs:node.dll
 0002:000002a0       __imp_node_module_register 000000018001d2a0     iojs:node.dll
 0002:000002a8       __imp_uv_close             000000018001d2a8     iojs:node.dll
 0002:000002b0       __imp_uv_mutex_lock        000000018001d2b0     iojs:node.dll
 0002:000002b8       __imp_?New@ObjectTemplate@v8@@SA?AV?$Local@VObjectTemplate@v8@@@2@PEAVIsolate@2@V?$Local@VFunctionTemplate@v8@@@2@@Z 000000018001d2b8     iojs:node.dll
 0002:000002c0       __imp_?NewInstance@ObjectTemplate@v8@@QEAA?AV?$MaybeLocal@VObject@v8@@@2@V?$Local@VContext@v8@@@2@@Z 000000018001d2c0     iojs:node.dll
 0002:000002c8       __imp_?SetInternalFieldCount@ObjectTemplate@v8@@QEAAXH@Z 000000018001d2c8     iojs:node.dll
 0002:000002d0       __imp_?Set@Object@v8@@QEAA?AV?$Maybe@_N@2@V?$Local@VContext@v8@@@2@IV?$Local@VValue@v8@@@2@@Z 000000018001d2d0     iojs:node.dll
 0002:000002d8       __imp_?Set@Object@v8@@QEAA?AV?$Maybe@_N@2@V?$Local@VContext@v8@@@2@V?$Local@VValue@v8@@@2@1@Z 000000018001d2d8     iojs:node.dll
 0002:000002e0       __imp_?Get@Object@v8@@QEAA?AV?$Local@VValue@v8@@@2@I@Z 000000018001d2e0     iojs:node.dll
 0002:000002e8       __imp_?Get@Object@v8@@QEAA?AV?$MaybeLocal@VValue@v8@@@2@V?$Local@VContext@v8@@@2@V?$Local@VValue@v8@@@2@@Z 000000018001d2e8     iojs:node.dll
 0002:000002f0       __imp_?SetInternalField@Object@v8@@QEAAXHV?$Local@VValue@v8@@@2@@Z 000000018001d2f0     iojs:node.dll
 0002:000002f8       __imp_?New@Object@v8@@SA?AV?$Local@VObject@v8@@@2@PEAVIsolate@2@@Z 000000018001d2f8     iojs:node.dll
 0002:00000300       __imp_?SlowGetInternalField@Object@v8@@AEAA?AV?$Local@VValue@v8@@@2@H@Z 000000018001d300     iojs:node.dll
 0002:00000308       __imp_?Value@Number@v8@@QEBANXZ 000000018001d308     iojs:node.dll
 0002:00000310       __imp_?New@Number@v8@@SA?AV?$Local@VNumber@v8@@@2@PEAVIsolate@2@N@Z 000000018001d310     iojs:node.dll
 0002:00000318       __imp_?NewFromUtf8@String@v8@@SA?AV?$MaybeLocal@VString@v8@@@2@PEAVIsolate@2@PEBDW4NewStringType@2@H@Z 000000018001d318     iojs:node.dll
 0002:00000320       __imp_??0EscapableHandleScope@v8@@QEAA@PEAVIsolate@1@@Z 000000018001d320     iojs:node.dll
 0002:00000328       __imp_?Escape@EscapableHandleScope@v8@@AEAAPEAPEAVObject@internal@2@PEAPEAV342@@Z 000000018001d328     iojs:node.dll
 0002:00000330       __imp_?IsArray@Value@v8@@QEBA_NXZ 000000018001d330     iojs:node.dll
 0002:00000338       __imp_?BooleanValue@Value@v8@@QEBA?AV?$Maybe@_N@2@V?$Local@VContext@v8@@@2@@Z 000000018001d338     iojs:node.dll
 0002:00000340       __imp_?GlobalizeReference@V8@v8@@CAPEAPEAVObject@internal@2@PEAVIsolate@42@PEAPEAV342@@Z 000000018001d340     iojs:node.dll
 0002:00000348       __imp_?DisposeGlobal@V8@v8@@CAXPEAPEAVObject@internal@2@@Z 000000018001d348     iojs:node.dll
 0002:00000350       __imp_?FromJustIsNothing@V8@v8@@CAXXZ 000000018001d350     iojs:node.dll
 0002:00000358       __imp_?ToLocalEmpty@V8@v8@@CAXXZ 000000018001d358     iojs:node.dll
 0002:00000360       __imp_?New@FunctionTemplate@v8@@SA?AV?$Local@VFunctionTemplate@v8@@@2@PEAVIsolate@2@P6AXAEBV?$FunctionCallbackInfo@VValue@v8@@@2@@ZV?$Local@VValue@v8@@@2@V?$Local@VSignature@v8@@@2@HW4ConstructorBehavior@2@@Z 000000018001d360     iojs:node.dll
 0002:00000368       __imp_?GetFunction@FunctionTemplate@v8@@QEAA?AV?$Local@VFunction@v8@@@2@XZ 000000018001d368     iojs:node.dll
 0002:00000370       __imp_?Length@Array@v8@@QEBAIXZ 000000018001d370     iojs:node.dll
 0002:00000378       __imp_?New@Array@v8@@SA?AV?$Local@VArray@v8@@@2@PEAVIsolate@2@H@Z 000000018001d378     iojs:node.dll
 0002:00000380       __imp_??0HandleScope@v8@@QEAA@PEAVIsolate@1@@Z 000000018001d380     iojs:node.dll
 0002:00000388       __imp_??1HandleScope@v8@@QEAA@XZ 000000018001d388     iojs:node.dll
 0002:00000390       __imp_?CreateHandle@HandleScope@v8@@CAPEAPEAVObject@internal@2@PEAVHeapObject@42@PEAV342@@Z 000000018001d390     iojs:node.dll
 0002:00000398       __imp_?CreateHandle@HandleScope@v8@@KAPEAPEAVObject@internal@2@PEAVIsolate@42@PEAV342@@Z 000000018001d398     iojs:node.dll
 0002:000003a0       __imp_?GetCurrent@Isolate@v8@@SAPEAV12@XZ 000000018001d3a0     iojs:node.dll
 0002:000003a8       __imp_?GetCurrentContext@Isolate@v8@@QEAA?AV?$Local@VContext@v8@@@2@XZ 000000018001d3a8     iojs:node.dll
 0002:000003b0       __imp_?New@External@v8@@SA?AV?$Local@VExternal@v8@@@2@PEAVIsolate@2@PEAX@Z 000000018001d3b0     iojs:node.dll
 0002:000003b8       __imp_?Value@External@v8@@QEBAPEAXXZ 000000018001d3b8     iojs:node.dll
 0002:000003c0       __imp_?Global@Context@v8@@QEAA?AV?$Local@VObject@v8@@@2@XZ 000000018001d3c0     iojs:node.dll
 0002:000003c8       __imp_uv_mutex_unlock      000000018001d3c8     iojs:node.dll
 0002:000003d0       __imp_?Get@Object@v8@@QEAA?AV?$Local@VValue@v8@@@2@V32@@Z 000000018001d3d0     iojs:node.dll
 0002:000003d8       \177node_NULL_THUNK_DATA   000000018001d3d8     iojs:node.dll
 0002:000003e0       __guard_check_icall_fptr   000000018001d3e0     LIBCMT:guard_support.obj
 0002:000003e8       __guard_dispatch_icall_fptr 000000018001d3e8     LIBCMT:guard_support.obj
 0002:000003f0       __xc_a                     000000018001d3f0     LIBCMT:initializers.obj
 0002:000004a0       _register_kinect2_         000000018001d4a0     kinect2.obj
 0002:000004a8       __xc_z                     000000018001d4a8     LIBCMT:initializers.obj
 0002:000004b0       __xi_a                     000000018001d4b0     LIBCMT:initializers.obj
 0002:000004b8       __acrt_stdio_initializer   000000018001d4b8     libucrt:stdio_initializer.obj
 0002:000004c0       __acrt_multibyte_initializer 000000018001d4c0     libucrt:multibyte_initializer.obj
 0002:000004c8       __acrt_tran_fma3_initializer 000000018001d4c8     libucrt:fma3_initializer.obj
 0002:000004d0       __xi_z                     000000018001d4d0     LIBCMT:initializers.obj
 0002:000004d8       __xp_a                     000000018001d4d8     LIBCMT:initializers.obj
 0002:000004e0       __acrt_locale_terminator   000000018001d4e0     libucrt:locale_initializer.obj
 0002:000004e8       __dcrt_console_output_terminator 000000018001d4e8     libucrt:console_output_initializer.obj
 0002:000004f0       __acrt_stdio_terminator    000000018001d4f0     libucrt:stdio_initializer.obj
 0002:000004f8       __xp_z                     000000018001d4f8     LIBCMT:initializers.obj
 0002:00000500       __xt_a                     000000018001d500     LIBCMT:initializers.obj
 0002:00000508       __xt_z                     000000018001d508     LIBCMT:initializers.obj
 0002:00000518       ??_7exception@std@@6B@     000000018001d518     libcpmt:xthrow.obj
 0002:00000528       ??_C@_0BC@EOODALEL@Unknown?5exception?$AA@ 000000018001d528     libcpmt:xthrow.obj
 0002:00000548       ??_7bad_alloc@std@@6B@     000000018001d548     libcpmt:xthrow.obj
 0002:00000558       ??_C@_0P@GHFPNOJB@bad?5allocation?$AA@ 000000018001d558     libcpmt:xthrow.obj
 0002:00000570       ??_7logic_error@std@@6B@   000000018001d570     libcpmt:xthrow.obj
 0002:00000588       ??_7length_error@std@@6B@  000000018001d588     libcpmt:xthrow.obj
 0002:000005a0       ??_7out_of_range@std@@6B@  000000018001d5a0     libcpmt:xthrow.obj
 0002:000005c0       _pDefaultRawDllMain        000000018001d5c0     LIBCMT:dll_dllmain.obj
 0002:000005c0       _pRawDllMain               000000018001d5c0     LIBCMT:dll_dllmain.obj
 0002:000005d0       ??_7type_info@@6B@         000000018001d5d0     LIBCMT:std_type_info_static.obj
 0002:000005e0       ??_7bad_array_new_length@std@@6B@ 000000018001d5e0     LIBCMT:throw_bad_alloc.obj
 0002:000005f0       ??_C@_0BF@KINCDENJ@bad?5array?5new?5length?$AA@ 000000018001d5f0     LIBCMT:throw_bad_alloc.obj
 0002:00000650       _Microsoft_CRTProvider     000000018001d650     libvcruntime:telemetry.obj
 0002:00000658       ??_C@_00CNPNBAHC@?$AA@     000000018001d658     libvcruntime:telemetry.obj
 0002:0000065c       ??_C@_11LOCGONAA@?$AA?$AA@ 000000018001d65c     libvcruntime:telemetry.obj
 0002:00000660       ??_C@_0O@JEOPJOMI@Main?5Invoked?4?$AA@ 000000018001d660     libvcruntime:telemetry.obj
 0002:00000670       ??_C@_0P@NEAEIBDO@Main?5Returned?4?$AA@ 000000018001d670     libvcruntime:telemetry.obj
 0002:000006a0       ??_C@_1BC@DNHGCMLG@?$AAa?$AAd?$AAv?$AAa?$AAp?$AAi?$AA3?$AA2?$AA?$AA@ 000000018001d6a0     libvcruntime:winapi_downlevel.obj
 0002:000006b8       ??_C@_1DM@KHCHBNEB@?$AAa?$AAp?$AAi?$AA?9?$AAm?$AAs?$AA?9?$AAw?$AAi?$AAn?$AA?9?$AAc?$AAo?$AAr?$AAe?$AA?9?$AAf?$AAi?$AAb?$AAe?$AAr?$AAs?$AA?9?$AAl?$AA1?$AA?9?$AA1?$AA?9?$AA1?$AA?$AA@ 000000018001d6b8     libvcruntime:winapi_downlevel.obj
 0002:000006f8       ??_C@_1DK@LPPGFMPP@?$AAa?$AAp?$AAi?$AA?9?$AAm?$AAs?$AA?9?$AAw?$AAi?$AAn?$AA?9?$AAc?$AAo?$AAr?$AAe?$AA?9?$AAs?$AAy?$AAn?$AAc?$AAh?$AA?9?$AAl?$AA1?$AA?9?$AA2?$AA?9?$AA0?$AA?$AA@ 000000018001d6f8     libvcruntime:winapi_downlevel.obj
 0002:00000738       ??_C@_1BC@GDMECMAK@?$AAk?$AAe?$AAr?$AAn?$AAe?$AAl?$AA3?$AA2?$AA?$AA@ 000000018001d738     libvcruntime:winapi_downlevel.obj
 0002:00000750       ??_C@_0O@BAMBGLIE@EventRegister?$AA@ 000000018001d750     libvcruntime:winapi_downlevel.obj
 0002:00000768       ??_C@_0BE@BJEEGHGK@EventSetInformation?$AA@ 000000018001d768     libvcruntime:winapi_downlevel.obj
 0002:00000780       ??_C@_0BA@FAKLIPIC@EventUnregister?$AA@ 000000018001d780     libvcruntime:winapi_downlevel.obj
 0002:00000798       ??_C@_0BD@PKLHJPHD@EventWriteTransfer?$AA@ 000000018001d798     libvcruntime:winapi_downlevel.obj
 0002:000007b8       ??_C@_08KNHFBNJ@FlsAlloc?$AA@ 000000018001d7b8     libvcruntime:winapi_downlevel.obj
 0002:000007d0       ??_C@_07PEJMOBNF@FlsFree?$AA@ 000000018001d7d0     libvcruntime:winapi_downlevel.obj
 0002:000007e0       ??_C@_0M@GDNOONDI@FlsGetValue?$AA@ 000000018001d7e0     libvcruntime:winapi_downlevel.obj
 0002:000007f8       ??_C@_0M@JCPCPOEF@FlsSetValue?$AA@ 000000018001d7f8     libvcruntime:winapi_downlevel.obj
 0002:00000810       ??_C@_0BM@HCFOFFN@InitializeCriticalSectionEx?$AA@ 000000018001d810     libvcruntime:winapi_downlevel.obj
 0002:00000b50       ??_C@_08EHJDFFNH@__based?$CI?$AA@ 000000018001db50     libvcruntime:undname.obj
 0002:00000b60       ??_C@_07KOLFKCDI@__cdecl?$AA@ 000000018001db60     libvcruntime:undname.obj
 0002:00000b68       ??_C@_08GHMPAG@__pascal?$AA@ 000000018001db68     libvcruntime:undname.obj
 0002:00000b78       ??_C@_09IFJBGAPI@__stdcall?$AA@ 000000018001db78     libvcruntime:undname.obj
 0002:00000b88       ??_C@_0L@NPHFGOKO@__thiscall?$AA@ 000000018001db88     libvcruntime:undname.obj
 0002:00000b98       ??_C@_0L@JMKHOMEK@__fastcall?$AA@ 000000018001db98     libvcruntime:undname.obj
 0002:00000ba8       ??_C@_0N@BCKKPABJ@__vectorcall?$AA@ 000000018001dba8     libvcruntime:undname.obj
 0002:00000bb8       ??_C@_09HIJEGCPM@__clrcall?$AA@ 000000018001dbb8     libvcruntime:undname.obj
 0002:00000bc4       ??_C@_06GHPCKEAG@__eabi?$AA@ 000000018001dbc4     libvcruntime:undname.obj
 0002:00000bd0       ??_C@_07JOMMBBKO@__ptr64?$AA@ 000000018001dbd0     libvcruntime:undname.obj
 0002:00000bd8       ??_C@_0L@PILCLIHE@__restrict?$AA@ 000000018001dbd8     libvcruntime:undname.obj
 0002:00000be8       ??_C@_0M@GFIIJFMG@__unaligned?$AA@ 000000018001dbe8     libvcruntime:undname.obj
 0002:00000bf8       ??_C@_09DHDLOLLB@restrict?$CI?$AA@ 000000018001dbf8     libvcruntime:undname.obj
 0002:00000c04       ??_C@_04NIHEBCM@?5new?$AA@ 000000018001dc04     libvcruntime:undname.obj
 0002:00000c10       ??_C@_07FPCDHGMM@?5delete?$AA@ 000000018001dc10     libvcruntime:undname.obj
 0002:00000c18       ??_C@_01NEMOKFLO@?$DN?$AA@ 000000018001dc18     libvcruntime:undname.obj
 0002:00000c1c       ??_C@_02GPIOPFAK@?$DO?$DO?$AA@ 000000018001dc1c     libvcruntime:undname.obj
 0002:00000c20       ??_C@_02FODMEDOG@?$DM?$DM?$AA@ 000000018001dc20     libvcruntime:undname.obj
 0002:00000c24       ??_C@_01DCLJPIOD@?$CB?$AA@ 000000018001dc24     libvcruntime:undname.obj
 0002:00000c28       ??_C@_02EGOFBIJA@?$DN?$DN?$AA@ 000000018001dc28     libvcruntime:undname.obj
 0002:00000c2c       ??_C@_02FDNJECIE@?$CB?$DN?$AA@ 000000018001dc2c     libvcruntime:undname.obj
 0002:00000c30       ??_C@_02GPECMEKF@?$FL?$FN?$AA@ 000000018001dc30     libvcruntime:undname.obj
 0002:00000c38       ??_C@_08LHJFAFGD@operator?$AA@ 000000018001dc38     libvcruntime:undname.obj
 0002:00000c44       ??_C@_02HBOOOICD@?9?$DO?$AA@ 000000018001dc44     libvcruntime:undname.obj
 0002:00000c48       ??_C@_01NBENCBCI@?$CK?$AA@ 000000018001dc48     libvcruntime:undname.obj
 0002:00000c4c       ??_C@_02ECNGHCIF@?$CL?$CL?$AA@ 000000018001dc4c     libvcruntime:undname.obj
 0002:00000c50       ??_C@_02BAABKJLB@?9?9?$AA@ 000000018001dc50     libvcruntime:undname.obj
 0002:00000c54       ??_C@_01JOAMLHOP@?9?$AA@   000000018001dc54     libvcruntime:undname.obj
 0002:00000c58       ??_C@_01MIFGBAGJ@?$CL?$AA@ 000000018001dc58     libvcruntime:undname.obj
 0002:00000c5c       ??_C@_01HNPIGOCE@?$CG?$AA@ 000000018001dc5c     libvcruntime:undname.obj
 0002:00000c60       ??_C@_03MNHNFDLC@?9?$DO?$CK?$AA@ 000000018001dc60     libvcruntime:undname.obj
 0002:00000c64       ??_C@_01KMDKNFGN@?1?$AA@   000000018001dc64     libvcruntime:undname.obj
 0002:00000c68       ??_C@_01FGNFDNOH@?$CF?$AA@ 000000018001dc68     libvcruntime:undname.obj
 0002:00000c6c       ??_C@_01MNNFJEPP@?$DM?$AA@ 000000018001dc6c     libvcruntime:undname.obj
 0002:00000c70       ??_C@_02EHCHHCKH@?$DM?$DN?$AA@ 000000018001dc70     libvcruntime:undname.obj
 0002:00000c74       ??_C@_01PPODPGHN@?$DO?$AA@ 000000018001dc74     libvcruntime:undname.obj
 0002:00000c78       ??_C@_02EEKDKGMJ@?$DO?$DN?$AA@ 000000018001dc78     libvcruntime:undname.obj
 0002:00000c7c       ??_C@_01IHBHIGKO@?0?$AA@   000000018001dc7c     libvcruntime:undname.obj
 0002:00000c80       ??_C@_02HCKGKOFO@?$CI?$CJ?$AA@ 000000018001dc80     libvcruntime:undname.obj
 0002:00000c84       ??_C@_01PJKLJHI@?$HO?$AA@  000000018001dc84     libvcruntime:undname.obj
 0002:00000c88       ??_C@_01JKBOJNNK@?$FO?$AA@ 000000018001dc88     libvcruntime:undname.obj
 0002:00000c8c       ??_C@_01DNKMNLPK@?$HM?$AA@ 000000018001dc8c     libvcruntime:undname.obj
 0002:00000c90       ??_C@_02PPKAJPJL@?$CG?$CG?$AA@ 000000018001dc90     libvcruntime:undname.obj
 0002:00000c94       ??_C@_02NONPIBCD@?$HM?$HM?$AA@ 000000018001dc94     libvcruntime:undname.obj
 0002:00000c98       ??_C@_02FPIMKNGF@?$CK?$DN?$AA@ 000000018001dc98     libvcruntime:undname.obj
 0002:00000c9c       ??_C@_02FOEOMHFC@?$CL?$DN?$AA@ 000000018001dc9c     libvcruntime:undname.obj
 0002:00000ca0       ??_C@_02FKMDLLOA@?9?$DN?$AA@ 000000018001dca0     libvcruntime:undname.obj
 0002:00000ca4       ??_C@_02FJEHGPIO@?1?$DN?$AA@ 000000018001dca4     libvcruntime:undname.obj
 0002:00000ca8       ??_C@_02FENAOKFI@?$CF?$DN?$AA@ 000000018001dca8     libvcruntime:undname.obj
 0002:00000cac       ??_C@_03IKFCCPFF@?$DO?$DO?$DN?$AA@ 000000018001dcac     libvcruntime:undname.obj
 0002:00000cb0       ??_C@_03CDNPDDLA@?$DM?$DM?$DN?$AA@ 000000018001dcb0     libvcruntime:undname.obj
 0002:00000cb4       ??_C@_02FGJGFEAB@?$CG?$DN?$AA@ 000000018001dcb4     libvcruntime:undname.obj
 0002:00000cb8       ??_C@_02DHLNPPGH@?$HM?$DN?$AA@ 000000018001dcb8     libvcruntime:undname.obj
 0002:00000cbc       ??_C@_02MHEGNOJ@?$FO?$DN?$AA@ 000000018001dcbc     libvcruntime:undname.obj
 0002:00000cc0       ??_C@_09IFPLHPGF@?$GAvftable?8?$AA@ 000000018001dcc0     libvcruntime:undname.obj
 0002:00000cd0       ??_C@_09BLBHBJP@?$GAvbtable?8?$AA@ 000000018001dcd0     libvcruntime:undname.obj
 0002:00000ce0       ??_C@_07FEEIOKP@?$GAvcall?8?$AA@ 000000018001dce0     libvcruntime:undname.obj
 0002:00000ce8       ??_C@_08LLFFHHDJ@?$GAtypeof?8?$AA@ 000000018001dce8     libvcruntime:undname.obj
 0002:00000cf8       ??_C@_0BF@KDPPACIK@?$GAlocal?5static?5guard?8?$AA@ 000000018001dcf8     libvcruntime:undname.obj
 0002:00000d10       ??_C@_08OBABFOLI@?$GAstring?8?$AA@ 000000018001dd10     libvcruntime:undname.obj
 0002:00000d20       ??_C@_0BD@JDLKDPAB@?$GAvbase?5destructor?8?$AA@ 000000018001dd20     libvcruntime:undname.obj
 0002:00000d38       ??_C@_0BN@DEGPLNFK@?$GAvector?5deleting?5destructor?8?$AA@ 000000018001dd38     libvcruntime:undname.obj
 0002:00000d58       ??_C@_0BO@OBMKPJIG@?$GAdefault?5constructor?5closure?8?$AA@ 000000018001dd58     libvcruntime:undname.obj
 0002:00000d78       ??_C@_0BN@IMDCHIKM@?$GAscalar?5deleting?5destructor?8?$AA@ 000000018001dd78     libvcruntime:undname.obj
 0002:00000d98       ??_C@_0BO@PFGOCPJJ@?$GAvector?5constructor?5iterator?8?$AA@ 000000018001dd98     libvcruntime:undname.obj
 0002:00000db8       ??_C@_0BN@LFPFMEDL@?$GAvector?5destructor?5iterator?8?$AA@ 000000018001ddb8     libvcruntime:undname.obj
 0002:00000dd8       ??_C@_0CE@IKBNEHA@?$GAvector?5vbase?5constructor?5iterat@ 000000018001ddd8     libvcruntime:undname.obj
 0002:00000e00       ??_C@_0BL@NILFHHPC@?$GAvirtual?5displacement?5map?8?$AA@ 000000018001de00     libvcruntime:undname.obj
 0002:00000e20       ??_C@_0CB@JONCMFFK@?$GAeh?5vector?5constructor?5iterator?8@ 000000018001de20     libvcruntime:undname.obj
 0002:00000e48       ??_C@_0CA@GCEOPDGL@?$GAeh?5vector?5destructor?5iterator?8?$AA@ 000000018001de48     libvcruntime:undname.obj
 0002:00000e68       ??_C@_0CH@OOJPLCPH@?$GAeh?5vector?5vbase?5constructor?5ite@ 000000018001de68     libvcruntime:undname.obj
 0002:00000e90       ??_C@_0BL@LLKPOHJI@?$GAcopy?5constructor?5closure?8?$AA@ 000000018001de90     libvcruntime:undname.obj
 0002:00000eb0       ??_C@_0BA@KBCDOMBN@?$GAudt?5returning?8?$AA@ 000000018001deb0     libvcruntime:undname.obj
 0002:00000ec0       ??_C@_03KLGMFNMG@?$GAEH?$AA@ 000000018001dec0     libvcruntime:undname.obj
 0002:00000ec4       ??_C@_05KHLCHHI@?$GARTTI?$AA@ 000000018001dec4     libvcruntime:undname.obj
 0002:00000ed0       ??_C@_0BA@KKLDJDLB@?$GAlocal?5vftable?8?$AA@ 000000018001ded0     libvcruntime:undname.obj
 0002:00000ee0       ??_C@_0CE@IIHCMGGL@?$GAlocal?5vftable?5constructor?5closu@ 000000018001dee0     libvcruntime:undname.obj
 0002:00000f04       ??_C@_06FHBGPFGH@?5new?$FL?$FN?$AA@ 000000018001df04     libvcruntime:undname.obj
 0002:00000f10       ??_C@_09LBNFPBCA@?5delete?$FL?$FN?$AA@ 000000018001df10     libvcruntime:undname.obj
 0002:00000f20       ??_C@_0P@HJKNJFNN@?$GAomni?5callsig?8?$AA@ 000000018001df20     libvcruntime:undname.obj
 0002:00000f30       ??_C@_0BL@CNOONJFP@?$GAplacement?5delete?5closure?8?$AA@ 000000018001df30     libvcruntime:undname.obj
 0002:00000f50       ??_C@_0BN@CKNJLHMB@?$GAplacement?5delete?$FL?$FN?5closure?8?$AA@ 000000018001df50     libvcruntime:undname.obj
 0002:00000f70       ??_C@_0CG@CFDHKGGD@?$GAmanaged?5vector?5constructor?5iter@ 000000018001df70     libvcruntime:undname.obj
 0002:00000f98       ??_C@_0CF@IMGKMJNO@?$GAmanaged?5vector?5destructor?5itera@ 000000018001df98     libvcruntime:undname.obj
 0002:00000fc0       ??_C@_0CG@HLDDJMAG@?$GAeh?5vector?5copy?5constructor?5iter@ 000000018001dfc0     libvcruntime:undname.obj
 0002:00000fe8       ??_C@_0CM@FCBBDIGB@?$GAeh?5vector?5vbase?5copy?5constructo@ 000000018001dfe8     libvcruntime:undname.obj
 0002:00001018       ??_C@_0BL@CLIPGLGB@?$GAdynamic?5initializer?5for?5?8?$AA@ 000000018001e018     libvcruntime:undname.obj
 0002:00001038       ??_C@_0CB@PDBIFEP@?$GAdynamic?5atexit?5destructor?5for?5?8@ 000000018001e038     libvcruntime:undname.obj
 0002:00001060       ??_C@_0CD@CGAJBKEJ@?$GAvector?5copy?5constructor?5iterato@ 000000018001e060     libvcruntime:undname.obj
 0002:00001088       ??_C@_0CJ@GJELGAMM@?$GAvector?5vbase?5copy?5constructor?5i@ 000000018001e088     libvcruntime:undname.obj
 0002:000010b8       ??_C@_0CL@FGIJHLCE@?$GAmanaged?5vector?5copy?5constructor@ 000000018001e0b8     libvcruntime:undname.obj
 0002:000010e8       ??_C@_0BM@PMGGMLDN@?$GAlocal?5static?5thread?5guard?8?$AA@ 000000018001e0e8     libvcruntime:undname.obj
 0002:00001108       ??_C@_0N@BDNMDMOL@operator?5?$CC?$CC?5?$AA@ 000000018001e108     libvcruntime:undname.obj
 0002:00001118       ??_C@_0BC@DAFEJGAK@?5Type?5Descriptor?8?$AA@ 000000018001e118     libvcruntime:undname.obj
 0002:00001130       ??_C@_0BM@LDKODKLH@?5Base?5Class?5Descriptor?5at?5?$CI?$AA@ 000000018001e130     libvcruntime:undname.obj
 0002:00001150       ??_C@_0BD@LGICGFMM@?5Base?5Class?5Array?8?$AA@ 000000018001e150     libvcruntime:undname.obj
 0002:00001168       ??_C@_0BN@MECKDCOJ@?5Class?5Hierarchy?5Descriptor?8?$AA@ 000000018001e168     libvcruntime:undname.obj
 0002:00001188       ??_C@_0BK@CFCOFLF@?5Complete?5Object?5Locator?8?$AA@ 000000018001e188     libvcruntime:undname.obj
 0002:000011b0       ??_C@_1EK@MBDPDCGA@?$AAM?$AAi?$AAc?$AAr?$AAo?$AAs?$AAo?$AAf?$AAt?$AA?5?$AAV?$AAi?$AAs?$AAu?$AAa?$AAl?$AA?5?$AAC?$AA?$CL?$AA?$CL?$AA?5?$AAR?$AAu?$AAn?$AAt?$AAi?$AAm?$AAe?$AA?5?$AAL?$AAi?$AAb@ 000000018001e1b0     libucrt:assert.obj
 0002:00001200       ??_C@_1FE@LHBLIKM@?$AAA?$AAs?$AAs?$AAe?$AAr?$AAt?$AAi?$AAo?$AAn?$AA?5?$AAf?$AAa?$AAi?$AAl?$AAe?$AAd?$AA?3?$AA?5?$AA?$CF?$AAT?$AAs?$AA?0?$AA?5?$AAf?$AAi?$AAl?$AAe?$AA?5?$AA?$CF?$AAT?$AAs?$AA?0@ 000000018001e200     libucrt:assert.obj
 0002:00001258       ??_C@_1CE@OJBNHDMO@?$AAA?$AAs?$AAs?$AAe?$AAr?$AAt?$AAi?$AAo?$AAn?$AA?5?$AAf?$AAa?$AAi?$AAl?$AAe?$AAd?$AA?$CB?$AA?$AA@ 000000018001e258     libucrt:assert.obj
 0002:00001280       ??_C@_1BE@PHKBBGE@?$AAP?$AAr?$AAo?$AAg?$AAr?$AAa?$AAm?$AA?3?$AA?5?$AA?$AA@ 000000018001e280     libucrt:assert.obj
 0002:00001298       ??_C@_1O@HEMHKNDC@?$AAF?$AAi?$AAl?$AAe?$AA?3?$AA?5?$AA?$AA@ 000000018001e298     libucrt:assert.obj
 0002:000012a8       ??_C@_1O@KCAFKHJE@?$AAL?$AAi?$AAn?$AAe?$AA?3?$AA?5?$AA?$AA@ 000000018001e2a8     libucrt:assert.obj
 0002:000012b8       ??_C@_1BK@PEDCIPMA@?$AAE?$AAx?$AAp?$AAr?$AAe?$AAs?$AAs?$AAi?$AAo?$AAn?$AA?3?$AA?5?$AA?$AA@ 000000018001e2b8     libucrt:assert.obj
 0002:000012e0       ??_C@_1OA@EGMLFBHJ@?$AAF?$AAo?$AAr?$AA?5?$AAi?$AAn?$AAf?$AAo?$AAr?$AAm?$AAa?$AAt?$AAi?$AAo?$AAn?$AA?5?$AAo?$AAn?$AA?5?$AAh?$AAo?$AAw?$AA?5?$AAy?$AAo?$AAu?$AAr?$AA?5?$AAp?$AAr?$AAo?$AAg@ 000000018001e2e0     libucrt:assert.obj
 0002:000013c0       ??_C@_1HK@POCJMFGK@?$AA?$CI?$AAP?$AAr?$AAe?$AAs?$AAs?$AA?5?$AAR?$AAe?$AAt?$AAr?$AAy?$AA?5?$AAt?$AAo?$AA?5?$AAd?$AAe?$AAb?$AAu?$AAg?$AA?5?$AAt?$AAh?$AAe?$AA?5?$AAa?$AAp?$AAp?$AAl?$AAi?$AAc@ 000000018001e3c0     libucrt:assert.obj
 0002:00001440       ??_C@_17LGKOMLJ@?$AA?4?$AA?4?$AA?4?$AA?$AA@ 000000018001e440     libucrt:assert.obj
 0002:00001448       ??_C@_13LBAGMAIH@?$AA?6?$AA?$AA@ 000000018001e448     libucrt:assert.obj
 0002:0000144c       ??_C@_15IABLJNFO@?$AA?6?$AA?6?$AA?$AA@ 000000018001e44c     libucrt:assert.obj
 0002:00001458       ??_C@_1CO@EAEJAADC@?$AA?$DM?$AAp?$AAr?$AAo?$AAg?$AAr?$AAa?$AAm?$AA?5?$AAn?$AAa?$AAm?$AAe?$AA?5?$AAu?$AAn?$AAk?$AAn?$AAo?$AAw?$AAn?$AA?$DO?$AA?$AA@ 000000018001e458     libucrt:assert.obj
 0002:00001490       __acrt_exception_action_table 000000018001e490     libucrt:exception_filter.obj
 0002:00001550       __acrt_signal_action_table_count 000000018001e550     libucrt:exception_filter.obj
 0002:00001558       __acrt_signal_action_first_fpe_index 000000018001e558     libucrt:exception_filter.obj
 0002:00001560       __acrt_signal_action_fpe_count 000000018001e560     libucrt:exception_filter.obj
 0002:00001568       ??_C@_1BI@BGOHAHKC@?$AAm?$AAs?$AAc?$AAo?$AAr?$AAe?$AAe?$AA?4?$AAd?$AAl?$AAl?$AA?$AA@ 000000018001e568     libucrt:exit.obj
 0002:00001580       ??_C@_0P@MIGLKIOC@CorExitProcess?$AA@ 000000018001e580     libucrt:exit.obj
 0002:00001680       standard_lookup_table      000000018001e680     libucrt:output.obj
 0002:000016dc       ??_C@_06OJHGLDPL@?$CInull?$CJ?$AA@ 000000018001e6dc     libucrt:output.obj
 0002:000016e8       ??_C@_1O@CEDCILHN@?$AA?$CI?$AAn?$AAu?$AAl?$AAl?$AA?$CJ?$AA?$AA@ 000000018001e6e8     libucrt:output.obj
 0002:00001870       __lc_time_c                000000018001e870     libucrt:nlsdata.obj
 0002:00001b30       ??_C@_03KOEHGMDN@Sun?$AA@  000000018001eb30     libucrt:nlsdata.obj
 0002:00001b34       ??_C@_03PDAGKDH@Mon?$AA@   000000018001eb34     libucrt:nlsdata.obj
 0002:00001b38       ??_C@_03NAGEINEP@Tue?$AA@  000000018001eb38     libucrt:nlsdata.obj
 0002:00001b3c       ??_C@_03MHOMLAJA@Wed?$AA@  000000018001eb3c     libucrt:nlsdata.obj
 0002:00001b40       ??_C@_03IOFIKPDN@Thu?$AA@  000000018001eb40     libucrt:nlsdata.obj
 0002:00001b44       ??_C@_03IDIOELNC@Fri?$AA@  000000018001eb44     libucrt:nlsdata.obj
 0002:00001b48       ??_C@_03FEFJNEK@Sat?$AA@   000000018001eb48     libucrt:nlsdata.obj
 0002:00001b4c       ??_C@_06OOPIFAJ@Sunday?$AA@ 000000018001eb4c     libucrt:nlsdata.obj
 0002:00001b54       ??_C@_06JLEDEDGH@Monday?$AA@ 000000018001eb54     libucrt:nlsdata.obj
 0002:00001b60       ??_C@_07BAAGCFCM@Tuesday?$AA@ 000000018001eb60     libucrt:nlsdata.obj
 0002:00001b68       ??_C@_09DLIGFAKA@Wednesday?$AA@ 000000018001eb68     libucrt:nlsdata.obj
 0002:00001b78       ??_C@_08HACCIKIA@Thursday?$AA@ 000000018001eb78     libucrt:nlsdata.obj
 0002:00001b84       ??_C@_06JECMNKMI@Friday?$AA@ 000000018001eb84     libucrt:nlsdata.obj
 0002:00001b90       ??_C@_08INBOOONO@Saturday?$AA@ 000000018001eb90     libucrt:nlsdata.obj
 0002:00001b9c       ??_C@_03JIHJHPIE@Jan?$AA@  000000018001eb9c     libucrt:nlsdata.obj
 0002:00001ba0       ??_C@_03HJBDCHOM@Feb?$AA@  000000018001eba0     libucrt:nlsdata.obj
 0002:00001ba4       ??_C@_03ODNJBKGA@Mar?$AA@  000000018001eba4     libucrt:nlsdata.obj
 0002:00001ba8       ??_C@_03LEOLGMJP@Apr?$AA@  000000018001eba8     libucrt:nlsdata.obj
 0002:00001bac       ??_C@_03CNMDKL@May?$AA@    000000018001ebac     libucrt:nlsdata.obj
 0002:00001bb0       ??_C@_03IDFGHECI@Jun?$AA@  000000018001ebb0     libucrt:nlsdata.obj
 0002:00001bb4       ??_C@_03LBGABGKK@Jul?$AA@  000000018001ebb4     libucrt:nlsdata.obj
 0002:00001bb8       ??_C@_03IFJFEIGA@Aug?$AA@  000000018001ebb8     libucrt:nlsdata.obj
 0002:00001bbc       ??_C@_03GGCAPAJC@Sep?$AA@  000000018001ebbc     libucrt:nlsdata.obj
 0002:00001bc0       ??_C@_03BMAOKBAD@Oct?$AA@  000000018001ebc0     libucrt:nlsdata.obj
 0002:00001bc4       ??_C@_03JPJOFNIA@Nov?$AA@  000000018001ebc4     libucrt:nlsdata.obj
 0002:00001bc8       ??_C@_03MKABNOCG@Dec?$AA@  000000018001ebc8     libucrt:nlsdata.obj
 0002:00001bd0       ??_C@_07CGJPFGJA@January?$AA@ 000000018001ebd0     libucrt:nlsdata.obj
 0002:00001bd8       ??_C@_08GNJGEPFN@February?$AA@ 000000018001ebd8     libucrt:nlsdata.obj
 0002:00001be4       ??_C@_05HPCKOFNC@March?$AA@ 000000018001ebe4     libucrt:nlsdata.obj
 0002:00001bec       ??_C@_05DMJDNLEJ@April?$AA@ 000000018001ebec     libucrt:nlsdata.obj
 0002:00001bf4       ??_C@_04CNLMGBGM@June?$AA@ 000000018001ebf4     libucrt:nlsdata.obj
 0002:00001bfc       ??_C@_04MIEPOIFP@July?$AA@ 000000018001ebfc     libucrt:nlsdata.obj
 0002:00001c04       ??_C@_06LBBHFDDG@August?$AA@ 000000018001ec04     libucrt:nlsdata.obj
 0002:00001c10       ??_C@_09BHHEALKD@September?$AA@ 000000018001ec10     libucrt:nlsdata.obj
 0002:00001c20       ??_C@_07JJNFCEND@October?$AA@ 000000018001ec20     libucrt:nlsdata.obj
 0002:00001c28       ??_C@_08HCHEGEOA@November?$AA@ 000000018001ec28     libucrt:nlsdata.obj
 0002:00001c38       ??_C@_08EDHMEBNP@December?$AA@ 000000018001ec38     libucrt:nlsdata.obj
 0002:00001c44       ??_C@_02DEDBPAFC@AM?$AA@   000000018001ec44     libucrt:nlsdata.obj
 0002:00001c48       ??_C@_02CJNFDJBF@PM?$AA@   000000018001ec48     libucrt:nlsdata.obj
 0002:00001c50       ??_C@_08BPBNCDIB@MM?1dd?1yy?$AA@ 000000018001ec50     libucrt:nlsdata.obj
 0002:00001c60       ??_C@_0BE@CKGJFCPC@dddd?0?5MMMM?5dd?0?5yyyy?$AA@ 000000018001ec60     libucrt:nlsdata.obj
 0002:00001c78       ??_C@_08JCCMCCIL@HH?3mm?3ss?$AA@ 000000018001ec78     libucrt:nlsdata.obj
 0002:00001c88       ??_C@_17MBGCMIPB@?$AAS?$AAu?$AAn?$AA?$AA@ 000000018001ec88     libucrt:nlsdata.obj
 0002:00001c90       ??_C@_17KBOMKBF@?$AAM?$AAo?$AAn?$AA?$AA@ 000000018001ec90     libucrt:nlsdata.obj
 0002:00001c98       ??_C@_17BMKGEGOJ@?$AAT?$AAu?$AAe?$AA?$AA@ 000000018001ec98     libucrt:nlsdata.obj
 0002:00001ca0       ??_C@_17CJEDCEPE@?$AAW?$AAe?$AAd?$AA?$AA@ 000000018001eca0     libucrt:nlsdata.obj
 0002:00001ca8       ??_C@_17PDPHAADD@?$AAT?$AAh?$AAu?$AA?$AA@ 000000018001eca8     libucrt:nlsdata.obj
 0002:00001cb0       ??_C@_17HFOLPPLP@?$AAF?$AAr?$AAi?$AA?$AA@ 000000018001ecb0     libucrt:nlsdata.obj
 0002:00001cb8       ??_C@_17GGIBDPIH@?$AAS?$AAa?$AAt?$AA?$AA@ 000000018001ecb8     libucrt:nlsdata.obj
 0002:00001cc0       ??_C@_1O@IHNHDHPB@?$AAS?$AAu?$AAn?$AAd?$AAa?$AAy?$AA?$AA@ 000000018001ecc0     libucrt:nlsdata.obj
 0002:00001cd0       ??_C@_1O@MMNBFLIA@?$AAM?$AAo?$AAn?$AAd?$AAa?$AAy?$AA?$AA@ 000000018001ecd0     libucrt:nlsdata.obj
 0002:00001ce0       ??_C@_1BA@ENFBFFEK@?$AAT?$AAu?$AAe?$AAs?$AAd?$AAa?$AAy?$AA?$AA@ 000000018001ece0     libucrt:nlsdata.obj
 0002:00001cf0       ??_C@_1BE@EBOGMDOH@?$AAW?$AAe?$AAd?$AAn?$AAe?$AAs?$AAd?$AAa?$AAy?$AA?$AA@ 000000018001ecf0     libucrt:nlsdata.obj
 0002:00001d08       ??_C@_1BC@HHMNLIHE@?$AAT?$AAh?$AAu?$AAr?$AAs?$AAd?$AAa?$AAy?$AA?$AA@ 000000018001ed08     libucrt:nlsdata.obj
 0002:00001d20       ??_C@_1O@PDICJHAG@?$AAF?$AAr?$AAi?$AAd?$AAa?$AAy?$AA?$AA@ 000000018001ed20     libucrt:nlsdata.obj
 0002:00001d30       ??_C@_1BC@ENMNNPAJ@?$AAS?$AAa?$AAt?$AAu?$AAr?$AAd?$AAa?$AAy?$AA?$AA@ 000000018001ed30     libucrt:nlsdata.obj
 0002:00001d48       ??_C@_17DKNBKCHM@?$AAJ?$AAa?$AAn?$AA?$AA@ 000000018001ed48     libucrt:nlsdata.obj
 0002:00001d50       ??_C@_17LMDJEKJN@?$AAF?$AAe?$AAb?$AA?$AA@ 000000018001ed50     libucrt:nlsdata.obj
 0002:00001d58       ??_C@_17CKNLEDEC@?$AAM?$AAa?$AAr?$AA?$AA@ 000000018001ed58     libucrt:nlsdata.obj
 0002:00001d60       ??_C@_17LFPOIHDD@?$AAA?$AAp?$AAr?$AA?$AA@ 000000018001ed60     libucrt:nlsdata.obj
 0002:00001d68       ??_C@_17PNNKMEED@?$AAM?$AAa?$AAy?$AA?$AA@ 000000018001ed68     libucrt:nlsdata.obj
 0002:00001d70       ??_C@_17KCJGOCPB@?$AAJ?$AAu?$AAn?$AA?$AA@ 000000018001ed70     libucrt:nlsdata.obj
 0002:00001d78       ??_C@_17IJPCKHK@?$AAJ?$AAu?$AAl?$AA?$AA@ 000000018001ed78     libucrt:nlsdata.obj
 0002:00001d80       ??_C@_17ICPELBCN@?$AAA?$AAu?$AAg?$AA?$AA@ 000000018001ed80     libucrt:nlsdata.obj
 0002:00001d88       ??_C@_17HCHCOKMG@?$AAS?$AAe?$AAp?$AA?$AA@ 000000018001ed88     libucrt:nlsdata.obj
 0002:00001d90       ??_C@_17FNLKOI@?$AAO?$AAc?$AAt?$AA?$AA@ 000000018001ed90     libucrt:nlsdata.obj
 0002:00001d98       ??_C@_17BBDMLCIG@?$AAN?$AAo?$AAv?$AA?$AA@ 000000018001ed98     libucrt:nlsdata.obj
 0002:00001da0       ??_C@_17EGKACKIF@?$AAD?$AAe?$AAc?$AA?$AA@ 000000018001eda0     libucrt:nlsdata.obj
 0002:00001da8       ??_C@_1BA@EFMEIEBA@?$AAJ?$AAa?$AAn?$AAu?$AAa?$AAr?$AAy?$AA?$AA@ 000000018001eda8     libucrt:nlsdata.obj
 0002:00001db8       ??_C@_1BC@JGDDFFAM@?$AAF?$AAe?$AAb?$AAr?$AAu?$AAa?$AAr?$AAy?$AA?$AA@ 000000018001edb8     libucrt:nlsdata.obj
 0002:00001dd0       ??_C@_1M@IKEENEDF@?$AAM?$AAa?$AAr?$AAc?$AAh?$AA?$AA@ 000000018001edd0     libucrt:nlsdata.obj
 0002:00001de0       ??_C@_1M@GJNLMHFD@?$AAA?$AAp?$AAr?$AAi?$AAl?$AA?$AA@ 000000018001ede0     libucrt:nlsdata.obj
 0002:00001df0       ??_C@_19EPFLPGAP@?$AAJ?$AAu?$AAn?$AAe?$AA?$AA@ 000000018001edf0     libucrt:nlsdata.obj
 0002:00001e00       ??_C@_19BIFMLPCD@?$AAJ?$AAu?$AAl?$AAy?$AA?$AA@ 000000018001ee00     libucrt:nlsdata.obj
 0002:00001e10       ??_C@_1O@PAHLKOAC@?$AAA?$AAu?$AAg?$AAu?$AAs?$AAt?$AA?$AA@ 000000018001ee10     libucrt:nlsdata.obj
 0002:00001e20       ??_C@_1BE@DKAAMBJL@?$AAS?$AAe?$AAp?$AAt?$AAe?$AAm?$AAb?$AAe?$AAr?$AA?$AA@ 000000018001ee20     libucrt:nlsdata.obj
 0002:00001e38       ??_C@_1BA@EPANDLNG@?$AAO?$AAc?$AAt?$AAo?$AAb?$AAe?$AAr?$AA?$AA@ 000000018001ee38     libucrt:nlsdata.obj
 0002:00001e48       ??_C@_1BC@BGLIFPF@?$AAN?$AAo?$AAv?$AAe?$AAm?$AAb?$AAe?$AAr?$AA?$AA@ 000000018001ee48     libucrt:nlsdata.obj
 0002:00001e60       ??_C@_1BC@FEMKIFH@?$AAD?$AAe?$AAc?$AAe?$AAm?$AAb?$AAe?$AAr?$AA?$AA@ 000000018001ee60     libucrt:nlsdata.obj
 0002:00001e74       ??_C@_15ODEHAHHF@?$AAA?$AAM?$AA?$AA@ 000000018001ee74     libucrt:nlsdata.obj
 0002:00001e7c       ??_C@_15CLMNNGEL@?$AAP?$AAM?$AA?$AA@ 000000018001ee7c     libucrt:nlsdata.obj
 0002:00001e88       ??_C@_1BC@IEBCMHCM@?$AAM?$AAM?$AA?1?$AAd?$AAd?$AA?1?$AAy?$AAy?$AA?$AA@ 000000018001ee88     libucrt:nlsdata.obj
 0002:00001ea0       ??_C@_1CI@KNAKOEBC@?$AAd?$AAd?$AAd?$AAd?$AA?0?$AA?5?$AAM?$AAM?$AAM?$AAM?$AA?5?$AAd?$AAd?$AA?0?$AA?5?$AAy?$AAy?$AAy?$AAy?$AA?$AA@ 000000018001eea0     libucrt:nlsdata.obj
 0002:00001ec8       ??_C@_1BC@GDGBMEMK@?$AAH?$AAH?$AA?3?$AAm?$AAm?$AA?3?$AAs?$AAs?$AA?$AA@ 000000018001eec8     libucrt:nlsdata.obj
 0002:00001ee0       ??_C@_1M@BMHNFIME@?$AAe?$AAn?$AA?9?$AAU?$AAS?$AA?$AA@ 000000018001eee0     libucrt:nlsdata.obj
 0002:00001f90       ??_C@_1EG@CNNIPFIM@?$AAa?$AAp?$AAi?$AA?9?$AAm?$AAs?$AA?9?$AAw?$AAi?$AAn?$AA?9?$AAa?$AAp?$AAp?$AAm?$AAo?$AAd?$AAe?$AAl?$AA?9?$AAr?$AAu?$AAn?$AAt?$AAi?$AAm?$AAe?$AA?9?$AAl?$AA1?$AA?9?$AA1@ 000000018001ef90     libucrt:winapi_thunks.obj
 0002:00001fe0       ??_C@_1EA@JGEFHKEI@?$AAa?$AAp?$AAi?$AA?9?$AAm?$AAs?$AA?9?$AAw?$AAi?$AAn?$AA?9?$AAc?$AAo?$AAr?$AAe?$AA?9?$AAd?$AAa?$AAt?$AAe?$AAt?$AAi?$AAm?$AAe?$AA?9?$AAl?$AA1?$AA?9?$AA1?$AA?9?$AA1?$AA?$AA@ 000000018001efe0     libucrt:winapi_thunks.obj
 0002:00002020       ??_C@_1DI@GCIAAENM@?$AAa?$AAp?$AAi?$AA?9?$AAm?$AAs?$AA?9?$AAw?$AAi?$AAn?$AA?9?$AAc?$AAo?$AAr?$AAe?$AA?9?$AAf?$AAi?$AAl?$AAe?$AA?9?$AAl?$AA2?$AA?9?$AA1?$AA?9?$AA1?$AA?$AA@ 000000018001f020     libucrt:winapi_thunks.obj
 0002:00002060       ??_C@_1EI@MPIAOHOC@?$AAa?$AAp?$AAi?$AA?9?$AAm?$AAs?$AA?9?$AAw?$AAi?$AAn?$AA?9?$AAc?$AAo?$AAr?$AAe?$AA?9?$AAl?$AAo?$AAc?$AAa?$AAl?$AAi?$AAz?$AAa?$AAt?$AAi?$AAo?$AAn?$AA?9?$AAl?$AA1?$AA?9@ 000000018001f060     libucrt:winapi_thunks.obj
 0002:000020b0       ??_C@_1FK@FPHCKFIE@?$AAa?$AAp?$AAi?$AA?9?$AAm?$AAs?$AA?9?$AAw?$AAi?$AAn?$AA?9?$AAc?$AAo?$AAr?$AAe?$AA?9?$AAl?$AAo?$AAc?$AAa?$AAl?$AAi?$AAz?$AAa?$AAt?$AAi?$AAo?$AAn?$AA?9?$AAo?$AAb?$AAs@ 000000018001f0b0     libucrt:winapi_thunks.obj
 0002:00002110       ??_C@_1EM@DILCGIIO@?$AAa?$AAp?$AAi?$AA?9?$AAm?$AAs?$AA?9?$AAw?$AAi?$AAn?$AA?9?$AAc?$AAo?$AAr?$AAe?$AA?9?$AAp?$AAr?$AAo?$AAc?$AAe?$AAs?$AAs?$AAt?$AAh?$AAr?$AAe?$AAa?$AAd?$AAs?$AA?9?$AAl@ 000000018001f110     libucrt:winapi_thunks.obj
 0002:00002160       ??_C@_1DM@LNCGDDPN@?$AAa?$AAp?$AAi?$AA?9?$AAm?$AAs?$AA?9?$AAw?$AAi?$AAn?$AA?9?$AAc?$AAo?$AAr?$AAe?$AA?9?$AAs?$AAt?$AAr?$AAi?$AAn?$AAg?$AA?9?$AAl?$AA1?$AA?9?$AA1?$AA?9?$AA0?$AA?$AA@ 000000018001f160     libucrt:winapi_thunks.obj
 0002:000021a0       ??_C@_1DO@FPAPJEMD@?$AAa?$AAp?$AAi?$AA?9?$AAm?$AAs?$AA?9?$AAw?$AAi?$AAn?$AA?9?$AAc?$AAo?$AAr?$AAe?$AA?9?$AAs?$AAy?$AAs?$AAi?$AAn?$AAf?$AAo?$AA?9?$AAl?$AA1?$AA?9?$AA2?$AA?9?$AA1?$AA?$AA@ 000000018001f1a0     libucrt:winapi_thunks.obj
 0002:000021e0       ??_C@_1DK@NDHNAHIO@?$AAa?$AAp?$AAi?$AA?9?$AAm?$AAs?$AA?9?$AAw?$AAi?$AAn?$AA?9?$AAc?$AAo?$AAr?$AAe?$AA?9?$AAw?$AAi?$AAn?$AAr?$AAt?$AA?9?$AAl?$AA1?$AA?9?$AA1?$AA?9?$AA0?$AA?$AA@ 000000018001f1e0     libucrt:winapi_thunks.obj
 0002:00002220       ??_C@_1DM@KGHDGBCM@?$AAa?$AAp?$AAi?$AA?9?$AAm?$AAs?$AA?9?$AAw?$AAi?$AAn?$AA?9?$AAc?$AAo?$AAr?$AAe?$AA?9?$AAx?$AAs?$AAt?$AAa?$AAt?$AAe?$AA?9?$AAl?$AA2?$AA?9?$AA1?$AA?9?$AA0?$AA?$AA@ 000000018001f220     libucrt:winapi_thunks.obj
 0002:00002260       ??_C@_1EO@IJIOEFOH@?$AAa?$AAp?$AAi?$AA?9?$AAm?$AAs?$AA?9?$AAw?$AAi?$AAn?$AA?9?$AAr?$AAt?$AAc?$AAo?$AAr?$AAe?$AA?9?$AAn?$AAt?$AAu?$AAs?$AAe?$AAr?$AA?9?$AAw?$AAi?$AAn?$AAd?$AAo?$AAw?$AA?9@ 000000018001f260     libucrt:winapi_thunks.obj
 0002:000022b0       ??_C@_1FG@HHGEKANL@?$AAa?$AAp?$AAi?$AA?9?$AAm?$AAs?$AA?9?$AAw?$AAi?$AAn?$AA?9?$AAs?$AAe?$AAc?$AAu?$AAr?$AAi?$AAt?$AAy?$AA?9?$AAs?$AAy?$AAs?$AAt?$AAe?$AAm?$AAf?$AAu?$AAn?$AAc?$AAt?$AAi@ 000000018001f2b0     libucrt:winapi_thunks.obj
 0002:00002310       ??_C@_1FG@NCKKOLKO@?$AAe?$AAx?$AAt?$AA?9?$AAm?$AAs?$AA?9?$AAw?$AAi?$AAn?$AA?9?$AAk?$AAe?$AAr?$AAn?$AAe?$AAl?$AA3?$AA2?$AA?9?$AAp?$AAa?$AAc?$AAk?$AAa?$AAg?$AAe?$AA?9?$AAc?$AAu?$AAr?$AAr@ 000000018001f310     libucrt:winapi_thunks.obj
 0002:00002370       ??_C@_1EG@DBIOJECG@?$AAe?$AAx?$AAt?$AA?9?$AAm?$AAs?$AA?9?$AAw?$AAi?$AAn?$AA?9?$AAn?$AAt?$AAu?$AAs?$AAe?$AAr?$AA?9?$AAd?$AAi?$AAa?$AAl?$AAo?$AAg?$AAb?$AAo?$AAx?$AA?9?$AAl?$AA1?$AA?9?$AA1@ 000000018001f370     libucrt:winapi_thunks.obj
 0002:000023c0       ??_C@_1EO@FIHMJCLF@?$AAe?$AAx?$AAt?$AA?9?$AAm?$AAs?$AA?9?$AAw?$AAi?$AAn?$AA?9?$AAn?$AAt?$AAu?$AAs?$AAe?$AAr?$AA?9?$AAw?$AAi?$AAn?$AAd?$AAo?$AAw?$AAs?$AAt?$AAa?$AAt?$AAi?$AAo?$AAn?$AA?9@ 000000018001f3c0     libucrt:winapi_thunks.obj
 0002:00002410       ??_C@_1O@BCCLBEOE@?$AAu?$AAs?$AAe?$AAr?$AA3?$AA2?$AA?$AA@ 000000018001f410     libucrt:winapi_thunks.obj
 0002:00002448       ??_C@_0BA@HNOPNCHB@GetActiveWindow?$AA@ 000000018001f448     libucrt:winapi_thunks.obj
 0002:00002460       ??_C@_0BE@JOGNEJCI@GetCurrentPackageId?$AA@ 000000018001f460     libucrt:winapi_thunks.obj
 0002:00002480       ??_C@_0BD@HHGDFDBJ@GetLastActivePopup?$AA@ 000000018001f480     libucrt:winapi_thunks.obj
 0002:000024a0       ??_C@_0BI@DFKBFLJE@GetProcessWindowStation?$AA@ 000000018001f4a0     libucrt:winapi_thunks.obj
 0002:000024c0       ??_C@_0BK@DEKFELLI@GetUserObjectInformationW?$AA@ 000000018001f4c0     libucrt:winapi_thunks.obj
 0002:000024f0       ??_C@_0O@KKBNKAPF@LCMapStringEx?$AA@ 000000018001f4f0     libucrt:winapi_thunks.obj
 0002:00002508       ??_C@_0BB@HBDEELFH@LocaleNameToLCID?$AA@ 000000018001f508     libucrt:winapi_thunks.obj
 0002:00002528       ??_C@_0M@CHKKJDAI@MessageBoxA?$AA@ 000000018001f528     libucrt:winapi_thunks.obj
 0002:00002540       ??_C@_0M@DLDCCGNP@MessageBoxW?$AA@ 000000018001f540     libucrt:winapi_thunks.obj
 0002:00002570       ??_C@_1M@HPNHIDJI@?$AAj?$AAa?$AA?9?$AAJ?$AAP?$AA?$AA@ 000000018001f570     libucrt:mbctype.obj
 0002:00002580       ??_C@_1M@BIBDDEMK@?$AAz?$AAh?$AA?9?$AAC?$AAN?$AA?$AA@ 000000018001f580     libucrt:mbctype.obj
 0002:00002590       ??_C@_1M@JLOOOEGK@?$AAk?$AAo?$AA?9?$AAK?$AAR?$AA?$AA@ 000000018001f590     libucrt:mbctype.obj
 0002:000025a0       ??_C@_1M@CLNBBOPM@?$AAz?$AAh?$AA?9?$AAT?$AAW?$AA?$AA@ 000000018001f5a0     libucrt:mbctype.obj
 0002:000025ac       ??_C@_03OEIAHPBN@INF?$AA@  000000018001f5ac     libucrt:cvt.obj
 0002:000025b0       ??_C@_03OJHLLCGB@inf?$AA@  000000018001f5b0     libucrt:cvt.obj
 0002:000025b4       ??_C@_03LKNCIKJB@NAN?$AA@  000000018001f5b4     libucrt:cvt.obj
 0002:000025b8       ??_C@_03LHCJEHON@nan?$AA@  000000018001f5b8     libucrt:cvt.obj
 0002:000025c0       ??_C@_09OFJJIMPC@NAN?$CISNAN?$CJ?$AA@ 000000018001f5c0     libucrt:cvt.obj
 0002:000025d0       ??_C@_09IPFBKMDL@nan?$CIsnan?$CJ?$AA@ 000000018001f5d0     libucrt:cvt.obj
 0002:000025e0       ??_C@_08IKHNHAJ@NAN?$CIIND?$CJ?$AA@ 000000018001f5e0     libucrt:cvt.obj
 0002:000025f0       ??_C@_08OFCDMILK@nan?$CIind?$CJ?$AA@ 000000018001f5f0     libucrt:cvt.obj
 0002:000025fc       ??_C@_05KLBDPFGC@e?$CL000?$AA@ 000000018001f5fc     libucrt:cvt.obj
 0002:00002610       __newctype                 000000018001f610     libucrt:ctype.obj
 0002:00002910       __newclmap                 000000018001f910     libucrt:ctype.obj
 0002:00002a90       __newcumap                 000000018001fa90     libucrt:ctype.obj
 0002:00002c10       _wctype                    000000018001fc10     libucrt:ctype.obj
 0002:00002e14       ??_C@_15PJPFLCCM@?$AAu?$AAk?$AA?$AA@ 000000018001fe14     libucrt:get_qualified_locale.obj
 0002:00003c60       ??_C@_15EMKDOKLE@?$AAa?$AAr?$AA?$AA@ 0000000180020c60     libucrt:lcidtoname_downlevel.obj
 0002:00003c68       ??_C@_15KNPADPLH@?$AAb?$AAg?$AA?$AA@ 0000000180020c68     libucrt:lcidtoname_downlevel.obj
 0002:00003c70       ??_C@_15EDMHLDMO@?$AAc?$AAa?$AA?$AA@ 0000000180020c70     libucrt:lcidtoname_downlevel.obj
 0002:00003c78       ??_C@_1O@BPEAJADD@?$AAz?$AAh?$AA?9?$AAC?$AAH?$AAS?$AA?$AA@ 0000000180020c78     libucrt:lcidtoname_downlevel.obj
 0002:00003c88       ??_C@_15LJNHCMNK@?$AAc?$AAs?$AA?$AA@ 0000000180020c88     libucrt:lcidtoname_downlevel.obj
 0002:00003c90       ??_C@_15FOMCIDHG@?$AAd?$AAa?$AA?$AA@ 0000000180020c90     libucrt:lcidtoname_downlevel.obj
 0002:00003c98       ??_C@_15NBKABECB@?$AAd?$AAe?$AA?$AA@ 0000000180020c98     libucrt:lcidtoname_downlevel.obj
 0002:00003ca0       ??_C@_15GHPEIIAO@?$AAe?$AAl?$AA?$AA@ 0000000180020ca0     libucrt:lcidtoname_downlevel.obj
 0002:00003ca8       ??_C@_15MNPNEAIF@?$AAe?$AAn?$AA?$AA@ 0000000180020ca8     libucrt:lcidtoname_downlevel.obj
 0002:00003cb0       ??_C@_15GPIOMPMH@?$AAe?$AAs?$AA?$AA@ 0000000180020cb0     libucrt:lcidtoname_downlevel.obj
 0002:00003cb8       ??_C@_15NGLOAKJC@?$AAf?$AAi?$AA?$AA@ 0000000180020cb8     libucrt:lcidtoname_downlevel.obj
 0002:00003cc0       ??_C@_15FBKGNKAM@?$AAf?$AAr?$AA?$AA@ 0000000180020cc0     libucrt:lcidtoname_downlevel.obj
 0002:00003cc8       ??_C@_15KGGCNEFK@?$AAh?$AAe?$AA?$AA@ 0000000180020cc8     libucrt:lcidtoname_downlevel.obj
 0002:00003cd0       ??_C@_15PGHLIDMF@?$AAh?$AAu?$AA?$AA@ 0000000180020cd0     libucrt:lcidtoname_downlevel.obj
 0002:00003cd8       ??_C@_15BIEMAPLM@?$AAi?$AAs?$AA?$AA@ 0000000180020cd8     libucrt:lcidtoname_downlevel.obj
 0002:00003ce0       ??_C@_15IFJLDHAF@?$AAi?$AAt?$AA?$AA@ 0000000180020ce0     libucrt:lcidtoname_downlevel.obj
 0002:00003ce8       ??_C@_15GEMIOCAG@?$AAj?$AAa?$AA?$AA@ 0000000180020ce8     libucrt:lcidtoname_downlevel.obj
 0002:00003cf0       ??_C@_15EPELEGJA@?$AAk?$AAo?$AA?$AA@ 0000000180020cf0     libucrt:lcidtoname_downlevel.obj
 0002:00003cf8       ??_C@_15NDDHIMN@?$AAn?$AAl?$AA?$AA@ 0000000180020cf8     libucrt:lcidtoname_downlevel.obj
 0002:00003d00       ??_C@_15BPIGNHCD@?$AAn?$AAo?$AA?$AA@ 0000000180020d00     libucrt:lcidtoname_downlevel.obj
 0002:00003d08       ??_C@_15DEOPBLCG@?$AAp?$AAl?$AA?$AA@ 0000000180020d08     libucrt:lcidtoname_downlevel.obj
 0002:00003d10       ??_C@_15KBECGEFG@?$AAp?$AAt?$AA?$AA@ 0000000180020d10     libucrt:lcidtoname_downlevel.obj
 0002:00003d18       ??_C@_15GLJCBFMD@?$AAr?$AAo?$AA?$AA@ 0000000180020d18     libucrt:lcidtoname_downlevel.obj
 0002:00003d20       ??_C@_15FEDGKCDI@?$AAr?$AAu?$AA?$AA@ 0000000180020d20     libucrt:lcidtoname_downlevel.obj
 0002:00003d28       ??_C@_15GLKMLLHM@?$AAh?$AAr?$AA?$AA@ 0000000180020d28     libucrt:lcidtoname_downlevel.obj
 0002:00003d30       ??_C@_15CPKMFBDB@?$AAs?$AAk?$AA?$AA@ 0000000180020d30     libucrt:lcidtoname_downlevel.obj
 0002:00003d38       ??_C@_15BAAIOGMK@?$AAs?$AAq?$AA?$AA@ 0000000180020d38     libucrt:lcidtoname_downlevel.obj
 0002:00003d40       ??_C@_15INNPNOHD@?$AAs?$AAv?$AA?$AA@ 0000000180020d40     libucrt:lcidtoname_downlevel.obj
 0002:00003d48       ??_C@_15CABMMOGH@?$AAt?$AAh?$AA?$AA@ 0000000180020d48     libucrt:lcidtoname_downlevel.obj
 0002:00003d50       ??_C@_15BPLIHJJM@?$AAt?$AAr?$AA?$AA@ 0000000180020d50     libucrt:lcidtoname_downlevel.obj
 0002:00003d58       ??_C@_15NEOEKKDJ@?$AAu?$AAr?$AA?$AA@ 0000000180020d58     libucrt:lcidtoname_downlevel.obj
 0002:00003d60       ??_C@_15NFICGAJK@?$AAi?$AAd?$AA?$AA@ 0000000180020d60     libucrt:lcidtoname_downlevel.obj
 0002:00003d68       ??_C@_15HPJPHDM@?$AAb?$AAe?$AA?$AA@ 0000000180020d68     libucrt:lcidtoname_downlevel.obj
 0002:00003d70       ??_C@_15LCHLGJII@?$AAs?$AAl?$AA?$AA@ 0000000180020d70     libucrt:lcidtoname_downlevel.obj
 0002:00003d78       ??_C@_15PCFJPHHO@?$AAe?$AAt?$AA?$AA@ 0000000180020d78     libucrt:lcidtoname_downlevel.obj
 0002:00003d80       ??_C@_15HPFPGODN@?$AAl?$AAv?$AA?$AA@ 0000000180020d80     libucrt:lcidtoname_downlevel.obj
 0002:00003d88       ??_C@_15NFFGKGLG@?$AAl?$AAt?$AA?$AA@ 0000000180020d88     libucrt:lcidtoname_downlevel.obj
 0002:00003d90       ??_C@_15BDAKCCHN@?$AAf?$AAa?$AA?$AA@ 0000000180020d90     libucrt:lcidtoname_downlevel.obj
 0002:00003d98       ??_C@_15NFGIAIAJ@?$AAv?$AAi?$AA?$AA@ 0000000180020d98     libucrt:lcidtoname_downlevel.obj
 0002:00003da0       ??_C@_15LMKNDMHN@?$AAh?$AAy?$AA?$AA@ 0000000180020da0     libucrt:lcidtoname_downlevel.obj
 0002:00003da8       ??_C@_15IJBHMCFL@?$AAa?$AAz?$AA?$AA@ 0000000180020da8     libucrt:lcidtoname_downlevel.obj
 0002:00003db0       ??_C@_15EKOFJABL@?$AAe?$AAu?$AA?$AA@ 0000000180020db0     libucrt:lcidtoname_downlevel.obj
 0002:00003db8       ??_C@_15BGHADCNK@?$AAm?$AAk?$AA?$AA@ 0000000180020db8     libucrt:lcidtoname_downlevel.obj
 0002:00003dc0       ??_C@_15JDNICKHM@?$AAa?$AAf?$AA?$AA@ 0000000180020dc0     libucrt:lcidtoname_downlevel.obj
 0002:00003dc8       ??_C@_15KPJEDBKD@?$AAk?$AAa?$AA?$AA@ 0000000180020dc8     libucrt:lcidtoname_downlevel.obj
 0002:00003dd0       ??_C@_15PDNFFFEO@?$AAf?$AAo?$AA?$AA@ 0000000180020dd0     libucrt:lcidtoname_downlevel.obj
 0002:00003dd8       ??_C@_15OMLEGLOC@?$AAh?$AAi?$AA?$AA@ 0000000180020dd8     libucrt:lcidtoname_downlevel.obj
 0002:00003de0       ??_C@_15IDNNENKK@?$AAm?$AAs?$AA?$AA@ 0000000180020de0     libucrt:lcidtoname_downlevel.obj
 0002:00003de8       ??_C@_15MACJNBMH@?$AAk?$AAk?$AA?$AA@ 0000000180020de8     libucrt:lcidtoname_downlevel.obj
 0002:00003df0       ??_C@_15DKDJEOND@?$AAk?$AAy?$AA?$AA@ 0000000180020df0     libucrt:lcidtoname_downlevel.obj
 0002:00003df8       ??_C@_15DFGDLJBG@?$AAs?$AAw?$AA?$AA@ 0000000180020df8     libucrt:lcidtoname_downlevel.obj
 0002:00003e00       ??_C@_15BBFAICNG@?$AAu?$AAz?$AA?$AA@ 0000000180020e00     libucrt:lcidtoname_downlevel.obj
 0002:00003e08       ??_C@_15DKNDCGEA@?$AAt?$AAt?$AA?$AA@ 0000000180020e08     libucrt:lcidtoname_downlevel.obj
 0002:00003e10       ??_C@_15MGIFMDPL@?$AAp?$AAa?$AA?$AA@ 0000000180020e10     libucrt:lcidtoname_downlevel.obj
 0002:00003e18       ??_C@_15HCNDBBA@?$AAg?$AAu?$AA?$AA@ 0000000180020e18     libucrt:lcidtoname_downlevel.obj
 0002:00003e20       ??_C@_15FNBEIBON@?$AAt?$AAa?$AA?$AA@ 0000000180020e20     libucrt:lcidtoname_downlevel.obj
 0002:00003e28       ??_C@_15NCHGBGLK@?$AAt?$AAe?$AA?$AA@ 0000000180020e28     libucrt:lcidtoname_downlevel.obj
 0002:00003e30       ??_C@_15PHPHCBPF@?$AAk?$AAn?$AA?$AA@ 0000000180020e30     libucrt:lcidtoname_downlevel.obj
 0002:00003e38       ??_C@_15DLGBCKMP@?$AAm?$AAr?$AA?$AA@ 0000000180020e38     libucrt:lcidtoname_downlevel.obj
 0002:00003e40       ??_C@_15EABBLBFF@?$AAs?$AAa?$AA?$AA@ 0000000180020e40     libucrt:lcidtoname_downlevel.obj
 0002:00003e48       ??_C@_15CBKOMCOI@?$AAm?$AAn?$AA?$AA@ 0000000180020e48     libucrt:lcidtoname_downlevel.obj
 0002:00003e50       ??_C@_15CKDMCJAF@?$AAg?$AAl?$AA?$AA@ 0000000180020e50     libucrt:lcidtoname_downlevel.obj
 0002:00003e58       ??_C@_17CNJFBPG@?$AAk?$AAo?$AAk?$AA?$AA@ 0000000180020e58     libucrt:lcidtoname_downlevel.obj
 0002:00003e60       ??_C@_17FFBJICPL@?$AAs?$AAy?$AAr?$AA?$AA@ 0000000180020e60     libucrt:lcidtoname_downlevel.obj
 0002:00003e68       ??_C@_17KPNDCPAF@?$AAd?$AAi?$AAv?$AA?$AA@ 0000000180020e68     libucrt:lcidtoname_downlevel.obj
 0002:00003e70       ??_C@_1M@OKAHONE@?$AAa?$AAr?$AA?9?$AAS?$AAA?$AA?$AA@ 0000000180020e70     libucrt:lcidtoname_downlevel.obj
 0002:00003e80       ??_C@_1M@FFFIGIGK@?$AAb?$AAg?$AA?9?$AAB?$AAG?$AA?$AA@ 0000000180020e80     libucrt:lcidtoname_downlevel.obj
 0002:00003e90       ??_C@_1M@BJNKEDC@?$AAc?$AAa?$AA?9?$AAE?$AAS?$AA?$AA@ 0000000180020e90     libucrt:lcidtoname_downlevel.obj
 0002:00003ea0       ??_C@_1M@IJJHFJHA@?$AAc?$AAs?$AA?9?$AAC?$AAZ?$AA?$AA@ 0000000180020ea0     libucrt:lcidtoname_downlevel.obj
 0002:00003eb0       ??_C@_1M@CLPEOBGI@?$AAd?$AAa?$AA?9?$AAD?$AAK?$AA?$AA@ 0000000180020eb0     libucrt:lcidtoname_downlevel.obj
 0002:00003ec0       ??_C@_1M@MCMADGCB@?$AAd?$AAe?$AA?9?$AAD?$AAE?$AA?$AA@ 0000000180020ec0     libucrt:lcidtoname_downlevel.obj
 0002:00003ed0       ??_C@_1M@OOCKEMAM@?$AAe?$AAl?$AA?9?$AAG?$AAR?$AA?$AA@ 0000000180020ed0     libucrt:lcidtoname_downlevel.obj
 0002:00003ee0       ??_C@_1M@DDNJFGID@?$AAf?$AAi?$AA?9?$AAF?$AAI?$AA?$AA@ 0000000180020ee0     libucrt:lcidtoname_downlevel.obj
 0002:00003ef0       ??_C@_1M@GLIPPMAC@?$AAf?$AAr?$AA?9?$AAF?$AAR?$AA?$AA@ 0000000180020ef0     libucrt:lcidtoname_downlevel.obj
 0002:00003f00       ??_C@_1M@GFMCHPE@?$AAh?$AAe?$AA?9?$AAI?$AAL?$AA?$AA@ 0000000180020f00     libucrt:lcidtoname_downlevel.obj
 0002:00003f10       ??_C@_1M@MHLPGNKM@?$AAh?$AAu?$AA?9?$AAH?$AAU?$AA?$AA@ 0000000180020f10     libucrt:lcidtoname_downlevel.obj
 0002:00003f20       ??_C@_1M@LPDDNNPN@?$AAi?$AAs?$AA?9?$AAI?$AAS?$AA?$AA@ 0000000180020f20     libucrt:lcidtoname_downlevel.obj
 0002:00003f30       ??_C@_1M@MADIPODN@?$AAi?$AAt?$AA?9?$AAI?$AAT?$AA?$AA@ 0000000180020f30     libucrt:lcidtoname_downlevel.obj
 0002:00003f40       ??_C@_1M@IHBJJGG@?$AAn?$AAl?$AA?9?$AAN?$AAL?$AA?$AA@ 0000000180020f40     libucrt:lcidtoname_downlevel.obj
 0002:00003f50       ??_C@_1M@EANAGDL@?$AAn?$AAb?$AA?9?$AAN?$AAO?$AA?$AA@ 0000000180020f50     libucrt:lcidtoname_downlevel.obj
 0002:00003f60       ??_C@_1M@NEIEMEGP@?$AAp?$AAl?$AA?9?$AAP?$AAL?$AA?$AA@ 0000000180020f60     libucrt:lcidtoname_downlevel.obj
 0002:00003f70       ??_C@_1M@BOCFIGEP@?$AAp?$AAt?$AA?9?$AAB?$AAR?$AA?$AA@ 0000000180020f70     libucrt:lcidtoname_downlevel.obj
 0002:00003f80       ??_C@_1M@IMPFOPBG@?$AAr?$AAo?$AA?9?$AAR?$AAO?$AA?$AA@ 0000000180020f80     libucrt:lcidtoname_downlevel.obj
 0002:00003f90       ??_C@_1M@IDNNEJMM@?$AAr?$AAu?$AA?9?$AAR?$AAU?$AA?$AA@ 0000000180020f90     libucrt:lcidtoname_downlevel.obj
 0002:00003fa0       ??_C@_1M@LILEEOGM@?$AAh?$AAr?$AA?9?$AAH?$AAR?$AA?$AA@ 0000000180020fa0     libucrt:lcidtoname_downlevel.obj
 0002:00003fb0       ??_C@_1M@FKIFEHPB@?$AAs?$AAk?$AA?9?$AAS?$AAK?$AA?$AA@ 0000000180020fb0     libucrt:lcidtoname_downlevel.obj
 0002:00003fc0       ??_C@_1M@LJMAMNPJ@?$AAs?$AAq?$AA?9?$AAA?$AAL?$AA?$AA@ 0000000180020fc0     libucrt:lcidtoname_downlevel.obj
 0002:00003fd0       ??_C@_1M@GIAKDKJK@?$AAs?$AAv?$AA?9?$AAS?$AAE?$AA?$AA@ 0000000180020fd0     libucrt:lcidtoname_downlevel.obj
 0002:00003fe0       ??_C@_1M@MKJKIKCL@?$AAt?$AAh?$AA?9?$AAT?$AAH?$AA?$AA@ 0000000180020fe0     libucrt:lcidtoname_downlevel.obj
 0002:00003ff0       ??_C@_1M@MFLCCMPB@?$AAt?$AAr?$AA?9?$AAT?$AAR?$AA?$AA@ 0000000180020ff0     libucrt:lcidtoname_downlevel.obj
 0002:00004000       ??_C@_1M@OIJHDKJN@?$AAu?$AAr?$AA?9?$AAP?$AAK?$AA?$AA@ 0000000180021000     libucrt:lcidtoname_downlevel.obj
 0002:00004010       ??_C@_1M@LHIPCIEK@?$AAi?$AAd?$AA?9?$AAI?$AAD?$AA?$AA@ 0000000180021010     libucrt:lcidtoname_downlevel.obj
 0002:00004020       ??_C@_1M@MFMOBGI@?$AAu?$AAk?$AA?9?$AAU?$AAA?$AA?$AA@ 0000000180021020     libucrt:lcidtoname_downlevel.obj
 0002:00004030       ??_C@_1M@OBGLJIPL@?$AAb?$AAe?$AA?9?$AAB?$AAY?$AA?$AA@ 0000000180021030     libucrt:lcidtoname_downlevel.obj
 0002:00004040       ??_C@_1M@BCFAJEAD@?$AAs?$AAl?$AA?9?$AAS?$AAI?$AA?$AA@ 0000000180021040     libucrt:lcidtoname_downlevel.obj
 0002:00004050       ??_C@_1M@FKFFEDDN@?$AAe?$AAt?$AA?9?$AAE?$AAE?$AA?$AA@ 0000000180021050     libucrt:lcidtoname_downlevel.obj
 0002:00004060       ??_C@_1M@KGKKAACI@?$AAl?$AAv?$AA?9?$AAL?$AAV?$AA?$AA@ 0000000180021060     libucrt:lcidtoname_downlevel.obj
 0002:00004070       ??_C@_1M@IFGBIJO@?$AAl?$AAt?$AA?9?$AAL?$AAT?$AA?$AA@ 0000000180021070     libucrt:lcidtoname_downlevel.obj
 0002:00004080       ??_C@_1M@FGEAHEDM@?$AAf?$AAa?$AA?9?$AAI?$AAR?$AA?$AA@ 0000000180021080     libucrt:lcidtoname_downlevel.obj
 0002:00004090       ??_C@_1M@KBMAIBFN@?$AAv?$AAi?$AA?9?$AAV?$AAN?$AA?$AA@ 0000000180021090     libucrt:lcidtoname_downlevel.obj
 0002:000040a0       ??_C@_1M@GPCBKDJK@?$AAh?$AAy?$AA?9?$AAA?$AAM?$AA?$AA@ 00000001800210a0     libucrt:lcidtoname_downlevel.obj
 0002:000040b0       ??_C@_1BG@BECMDDJB@?$AAa?$AAz?$AA?9?$AAA?$AAZ?$AA?9?$AAL?$AAa?$AAt?$AAn?$AA?$AA@ 00000001800210b0     libucrt:lcidtoname_downlevel.obj
 0002:000040c8       ??_C@_1M@MAOFCAEA@?$AAe?$AAu?$AA?9?$AAE?$AAS?$AA?$AA@ 00000001800210c8     libucrt:lcidtoname_downlevel.obj
 0002:000040d8       ??_C@_1M@IGHABKPI@?$AAm?$AAk?$AA?9?$AAM?$AAK?$AA?$AA@ 00000001800210d8     libucrt:lcidtoname_downlevel.obj
 0002:000040e8       ??_C@_1M@IAIGNEJG@?$AAt?$AAn?$AA?9?$AAZ?$AAA?$AA?$AA@ 00000001800210e8     libucrt:lcidtoname_downlevel.obj
 0002:000040f8       ??_C@_1M@IIJCOJFA@?$AAx?$AAh?$AA?9?$AAZ?$AAA?$AA?$AA@ 00000001800210f8     libucrt:lcidtoname_downlevel.obj
 0002:00004108       ??_C@_1M@LGPJHNJH@?$AAz?$AAu?$AA?9?$AAZ?$AAA?$AA?$AA@ 0000000180021108     libucrt:lcidtoname_downlevel.obj
 0002:00004118       ??_C@_1M@HOKAOIO@?$AAa?$AAf?$AA?9?$AAZ?$AAA?$AA?$AA@ 0000000180021118     libucrt:lcidtoname_downlevel.obj
 0002:00004128       ??_C@_1M@DPCLHLIE@?$AAk?$AAa?$AA?9?$AAG?$AAE?$AA?$AA@ 0000000180021128     libucrt:lcidtoname_downlevel.obj
 0002:00004138       ??_C@_1M@BLKMHJBI@?$AAf?$AAo?$AA?9?$AAF?$AAO?$AA?$AA@ 0000000180021138     libucrt:lcidtoname_downlevel.obj
 0002:00004148       ??_C@_1M@LGGJAPPB@?$AAh?$AAi?$AA?9?$AAI?$AAN?$AA?$AA@ 0000000180021148     libucrt:lcidtoname_downlevel.obj
 0002:00004158       ??_C@_1M@FIKPIHFE@?$AAm?$AAt?$AA?9?$AAM?$AAT?$AA?$AA@ 0000000180021158     libucrt:lcidtoname_downlevel.obj
 0002:00004168       ??_C@_1M@HEGGPBFA@?$AAs?$AAe?$AA?9?$AAN?$AAO?$AA?$AA@ 0000000180021168     libucrt:lcidtoname_downlevel.obj
 0002:00004178       ??_C@_1M@EIBJEEPA@?$AAm?$AAs?$AA?9?$AAM?$AAY?$AA?$AA@ 0000000180021178     libucrt:lcidtoname_downlevel.obj
 0002:00004188       ??_C@_1M@FHLBGMPP@?$AAk?$AAk?$AA?9?$AAK?$AAZ?$AA?$AA@ 0000000180021188     libucrt:lcidtoname_downlevel.obj
 0002:00004198       ??_C@_1M@NGJJLCGI@?$AAk?$AAy?$AA?9?$AAK?$AAG?$AA?$AA@ 0000000180021198     libucrt:lcidtoname_downlevel.obj
 0002:000041a8       ??_C@_1M@GIENNBFC@?$AAs?$AAw?$AA?9?$AAK?$AAE?$AA?$AA@ 00000001800211a8     libucrt:lcidtoname_downlevel.obj
 0002:000041b8       ??_C@_1BG@NDGMJIMJ@?$AAu?$AAz?$AA?9?$AAU?$AAZ?$AA?9?$AAL?$AAa?$AAt?$AAn?$AA?$AA@ 00000001800211b8     libucrt:lcidtoname_downlevel.obj
 0002:000041d0       ??_C@_1M@IDCCIHBC@?$AAt?$AAt?$AA?9?$AAR?$AAU?$AA?$AA@ 00000001800211d0     libucrt:lcidtoname_downlevel.obj
 0002:000041e0       ??_C@_1M@LOICPMOJ@?$AAb?$AAn?$AA?9?$AAI?$AAN?$AA?$AA@ 00000001800211e0     libucrt:lcidtoname_downlevel.obj
 0002:000041f0       ??_C@_1M@KPKKNEAH@?$AAp?$AAa?$AA?9?$AAI?$AAN?$AA?$AA@ 00000001800211f0     libucrt:lcidtoname_downlevel.obj
 0002:00004200       ??_C@_1M@PJGPPBOG@?$AAg?$AAu?$AA?9?$AAI?$AAN?$AA?$AA@ 0000000180021200     libucrt:lcidtoname_downlevel.obj
 0002:00004210       ??_C@_1M@KMKMOPHI@?$AAt?$AAa?$AA?9?$AAI?$AAN?$AA?$AA@ 0000000180021210     libucrt:lcidtoname_downlevel.obj
 0002:00004220       ??_C@_1M@KFEHEPAC@?$AAt?$AAe?$AA?9?$AAI?$AAN?$AA?$AA@ 0000000180021220     libucrt:lcidtoname_downlevel.obj
 0002:00004230       ??_C@_1M@CDCLMGHI@?$AAk?$AAn?$AA?9?$AAI?$AAN?$AA?$AA@ 0000000180021230     libucrt:lcidtoname_downlevel.obj
 0002:00004240       ??_C@_1M@MIODLDKF@?$AAm?$AAl?$AA?9?$AAI?$AAN?$AA?$AA@ 0000000180021240     libucrt:lcidtoname_downlevel.obj
 0002:00004250       ??_C@_1M@PBIEACPO@?$AAm?$AAr?$AA?9?$AAI?$AAN?$AA?$AA@ 0000000180021250     libucrt:lcidtoname_downlevel.obj
 0002:00004260       ??_C@_1M@NIDEAGPH@?$AAs?$AAa?$AA?9?$AAI?$AAN?$AA?$AA@ 0000000180021260     libucrt:lcidtoname_downlevel.obj
 0002:00004270       ??_C@_1M@FHIHCBIO@?$AAm?$AAn?$AA?9?$AAM?$AAN?$AA?$AA@ 0000000180021270     libucrt:lcidtoname_downlevel.obj
 0002:00004280       ??_C@_1M@JAIJPENP@?$AAc?$AAy?$AA?9?$AAG?$AAB?$AA?$AA@ 0000000180021280     libucrt:lcidtoname_downlevel.obj
 0002:00004290       ??_C@_1M@PHGFBEPN@?$AAg?$AAl?$AA?9?$AAE?$AAS?$AA?$AA@ 0000000180021290     libucrt:lcidtoname_downlevel.obj
 0002:000042a0       ??_C@_1O@KPIPDNCP@?$AAk?$AAo?$AAk?$AA?9?$AAI?$AAN?$AA?$AA@ 00000001800212a0     libucrt:lcidtoname_downlevel.obj
 0002:000042b0       ??_C@_1O@KNHJLDJA@?$AAs?$AAy?$AAr?$AA?9?$AAS?$AAY?$AA?$AA@ 00000001800212b0     libucrt:lcidtoname_downlevel.obj
 0002:000042c0       ??_C@_1O@MKEKBLAH@?$AAd?$AAi?$AAv?$AA?9?$AAM?$AAV?$AA?$AA@ 00000001800212c0     libucrt:lcidtoname_downlevel.obj
 0002:000042d0       ??_C@_1O@OHDCKDDF@?$AAq?$AAu?$AAz?$AA?9?$AAB?$AAO?$AA?$AA@ 00000001800212d0     libucrt:lcidtoname_downlevel.obj
 0002:000042e0       ??_C@_1M@LEPJNLFD@?$AAn?$AAs?$AA?9?$AAZ?$AAA?$AA?$AA@ 00000001800212e0     libucrt:lcidtoname_downlevel.obj
 0002:000042f0       ??_C@_1M@OMLEIIJB@?$AAm?$AAi?$AA?9?$AAN?$AAZ?$AA?$AA@ 00000001800212f0     libucrt:lcidtoname_downlevel.obj
 0002:00004300       ??_C@_1M@PMPEAILG@?$AAa?$AAr?$AA?9?$AAI?$AAQ?$AA?$AA@ 0000000180021300     libucrt:lcidtoname_downlevel.obj
 0002:00004310       ??_C@_1M@CNKPNOEE@?$AAd?$AAe?$AA?9?$AAC?$AAH?$AA?$AA@ 0000000180021310     libucrt:lcidtoname_downlevel.obj
 0002:00004320       ??_C@_1M@LKMGMLKO@?$AAe?$AAn?$AA?9?$AAG?$AAB?$AA?$AA@ 0000000180021320     libucrt:lcidtoname_downlevel.obj
 0002:00004330       ??_C@_1M@PGKJFFGL@?$AAe?$AAs?$AA?9?$AAM?$AAX?$AA?$AA@ 0000000180021330     libucrt:lcidtoname_downlevel.obj
 0002:00004340       ??_C@_1M@DNNANBDC@?$AAf?$AAr?$AA?9?$AAB?$AAE?$AA?$AA@ 0000000180021340     libucrt:lcidtoname_downlevel.obj
 0002:00004350       ??_C@_1M@HLGMDFHM@?$AAi?$AAt?$AA?9?$AAC?$AAH?$AA?$AA@ 0000000180021350     libucrt:lcidtoname_downlevel.obj
 0002:00004360       ??_C@_1M@CLLBGJH@?$AAn?$AAl?$AA?9?$AAB?$AAE?$AA?$AA@ 0000000180021360     libucrt:lcidtoname_downlevel.obj
 0002:00004370       ??_C@_1M@BODBOGLF@?$AAn?$AAn?$AA?9?$AAN?$AAO?$AA?$AA@ 0000000180021370     libucrt:lcidtoname_downlevel.obj
 0002:00004380       ??_C@_1M@HFFAHKAD@?$AAp?$AAt?$AA?9?$AAP?$AAT?$AA?$AA@ 0000000180021380     libucrt:lcidtoname_downlevel.obj
 0002:00004390       ??_C@_1BG@LNOAKHIE@?$AAs?$AAr?$AA?9?$AAS?$AAP?$AA?9?$AAL?$AAa?$AAt?$AAn?$AA?$AA@ 0000000180021390     libucrt:lcidtoname_downlevel.obj
 0002:000043a8       ??_C@_1M@HBMHBGAK@?$AAs?$AAv?$AA?9?$AAF?$AAI?$AA?$AA@ 00000001800213a8     libucrt:lcidtoname_downlevel.obj
 0002:000043b8       ??_C@_1BG@DGCJGJBE@?$AAa?$AAz?$AA?9?$AAA?$AAZ?$AA?9?$AAC?$AAy?$AAr?$AAl?$AA?$AA@ 00000001800213b8     libucrt:lcidtoname_downlevel.obj
 0002:000043d0       ??_C@_1M@KEJDAAHB@?$AAs?$AAe?$AA?9?$AAS?$AAE?$AA?$AA@ 00000001800213d0     libucrt:lcidtoname_downlevel.obj
 0002:000043e0       ??_C@_1M@HEIBJJAD@?$AAm?$AAs?$AA?9?$AAB?$AAN?$AA?$AA@ 00000001800213e0     libucrt:lcidtoname_downlevel.obj
 0002:000043f0       ??_C@_1BG@PBGJMCEM@?$AAu?$AAz?$AA?9?$AAU?$AAZ?$AA?9?$AAC?$AAy?$AAr?$AAl?$AA?$AA@ 00000001800213f0     libucrt:lcidtoname_downlevel.obj
 0002:00004408       ??_C@_1O@LAOBCMDF@?$AAq?$AAu?$AAz?$AA?9?$AAE?$AAC?$AA?$AA@ 0000000180021408     libucrt:lcidtoname_downlevel.obj
 0002:00004418       ??_C@_1M@POEEMAIO@?$AAa?$AAr?$AA?9?$AAE?$AAG?$AA?$AA@ 0000000180021418     libucrt:lcidtoname_downlevel.obj
 0002:00004428       ??_C@_1M@EFAKDEDL@?$AAz?$AAh?$AA?9?$AAH?$AAK?$AA?$AA@ 0000000180021428     libucrt:lcidtoname_downlevel.obj
 0002:00004438       ??_C@_1M@HKKIJHGI@?$AAd?$AAe?$AA?9?$AAA?$AAT?$AA?$AA@ 0000000180021438     libucrt:lcidtoname_downlevel.obj
 0002:00004448       ??_C@_1M@KBFBEHJF@?$AAe?$AAn?$AA?9?$AAA?$AAU?$AA?$AA@ 0000000180021448     libucrt:lcidtoname_downlevel.obj
 0002:00004458       ??_C@_1M@MNPLFAAH@?$AAe?$AAs?$AA?9?$AAE?$AAS?$AA?$AA@ 0000000180021458     libucrt:lcidtoname_downlevel.obj
 0002:00004468       ??_C@_1M@HJOOJFMA@?$AAf?$AAr?$AA?9?$AAC?$AAA?$AA?$AA@ 0000000180021468     libucrt:lcidtoname_downlevel.obj
 0002:00004478       ??_C@_1BG@JPOFPNAB@?$AAs?$AAr?$AA?9?$AAS?$AAP?$AA?9?$AAC?$AAy?$AAr?$AAl?$AA?$AA@ 0000000180021478     libucrt:lcidtoname_downlevel.obj
 0002:00004490       ??_C@_1M@LNFOCMOB@?$AAs?$AAe?$AA?9?$AAF?$AAI?$AA?$AA@ 0000000180021490     libucrt:lcidtoname_downlevel.obj
 0002:000044a0       ??_C@_1O@MGJBOAMB@?$AAq?$AAu?$AAz?$AA?9?$AAP?$AAE?$AA?$AA@ 00000001800214a0     libucrt:lcidtoname_downlevel.obj
 0002:000044b0       ??_C@_1M@GJINLBOK@?$AAa?$AAr?$AA?9?$AAL?$AAY?$AA?$AA@ 00000001800214b0     libucrt:lcidtoname_downlevel.obj
 0002:000044c0       ??_C@_1M@GGMNHJNL@?$AAz?$AAh?$AA?9?$AAS?$AAG?$AA?$AA@ 00000001800214c0     libucrt:lcidtoname_downlevel.obj
 0002:000044d0       ??_C@_1M@HOIKODND@?$AAd?$AAe?$AA?9?$AAL?$AAU?$AA?$AA@ 00000001800214d0     libucrt:lcidtoname_downlevel.obj
 0002:000044e0       ??_C@_1M@DDOCCGFG@?$AAe?$AAn?$AA?9?$AAC?$AAA?$AA?$AA@ 00000001800214e0     libucrt:lcidtoname_downlevel.obj
 0002:000044f0       ??_C@_1M@BNOEMJLF@?$AAe?$AAs?$AA?9?$AAG?$AAT?$AA?$AA@ 00000001800214f0     libucrt:lcidtoname_downlevel.obj
 0002:00004500       ??_C@_1M@EOGNKEK@?$AAf?$AAr?$AA?9?$AAC?$AAH?$AA?$AA@ 0000000180021500     libucrt:lcidtoname_downlevel.obj
 0002:00004510       ??_C@_1M@FLIDJFHL@?$AAh?$AAr?$AA?9?$AAB?$AAA?$AA?$AA@ 0000000180021510     libucrt:lcidtoname_downlevel.obj
 0002:00004520       ??_C@_1O@FMCELNAJ@?$AAs?$AAm?$AAj?$AA?9?$AAN?$AAO?$AA?$AA@ 0000000180021520     libucrt:lcidtoname_downlevel.obj
 0002:00004530       ??_C@_1M@JHGLJMGJ@?$AAa?$AAr?$AA?9?$AAD?$AAZ?$AA?$AA@ 0000000180021530     libucrt:lcidtoname_downlevel.obj
 0002:00004540       ??_C@_1M@JKKFDCNP@?$AAz?$AAh?$AA?9?$AAM?$AAO?$AA?$AA@ 0000000180021540     libucrt:lcidtoname_downlevel.obj
 0002:00004550       ??_C@_1M@GEEFALPE@?$AAd?$AAe?$AA?9?$AAL?$AAI?$AA?$AA@ 0000000180021550     libucrt:lcidtoname_downlevel.obj
 0002:00004560       ??_C@_1M@IGEOFBG@?$AAe?$AAn?$AA?9?$AAN?$AAZ?$AA?$AA@ 0000000180021560     libucrt:lcidtoname_downlevel.obj
 0002:00004570       ??_C@_1M@KDBONEHP@?$AAe?$AAs?$AA?9?$AAC?$AAR?$AA?$AA@ 0000000180021570     libucrt:lcidtoname_downlevel.obj
 0002:00004580       ??_C@_1M@FHMDOHNN@?$AAf?$AAr?$AA?9?$AAL?$AAU?$AA?$AA@ 0000000180021580     libucrt:lcidtoname_downlevel.obj
 0002:00004590       ??_C@_1BG@NFKKMAFG@?$AAb?$AAs?$AA?9?$AAB?$AAA?$AA?9?$AAL?$AAa?$AAt?$AAn?$AA?$AA@ 0000000180021590     libucrt:lcidtoname_downlevel.obj
 0002:000045a8       ??_C@_1O@IMNBEMCI@?$AAs?$AAm?$AAj?$AA?9?$AAS?$AAE?$AA?$AA@ 00000001800215a8     libucrt:lcidtoname_downlevel.obj
 0002:000045b8       ??_C@_1M@DHHMBNDP@?$AAa?$AAr?$AA?9?$AAM?$AAA?$AA?$AA@ 00000001800215b8     libucrt:lcidtoname_downlevel.obj
 0002:000045c8       ??_C@_1M@BNBLJCGH@?$AAe?$AAn?$AA?9?$AAI?$AAE?$AA?$AA@ 00000001800215c8     libucrt:lcidtoname_downlevel.obj
 0002:000045d8       ??_C@_1M@GEPAFMDL@?$AAe?$AAs?$AA?9?$AAP?$AAA?$AA?$AA@ 00000001800215d8     libucrt:lcidtoname_downlevel.obj
 0002:000045e8       ??_C@_1M@OJONDMDL@?$AAf?$AAr?$AA?9?$AAM?$AAC?$AA?$AA@ 00000001800215e8     libucrt:lcidtoname_downlevel.obj
 0002:000045f8       ??_C@_1BG@OBCNFJB@?$AAs?$AAr?$AA?9?$AAB?$AAA?$AA?9?$AAL?$AAa?$AAt?$AAn?$AA?$AA@ 00000001800215f8     libucrt:lcidtoname_downlevel.obj
 0002:00004610       ??_C@_1O@KEMEEGPO@?$AAs?$AAm?$AAa?$AA?9?$AAN?$AAO?$AA?$AA@ 0000000180021610     libucrt:lcidtoname_downlevel.obj
 0002:00004620       ??_C@_1M@ELMGFODK@?$AAa?$AAr?$AA?9?$AAT?$AAN?$AA?$AA@ 0000000180021620     libucrt:lcidtoname_downlevel.obj
 0002:00004630       ??_C@_1M@BHDLHFAF@?$AAe?$AAn?$AA?9?$AAZ?$AAA?$AA?$AA@ 0000000180021630     libucrt:lcidtoname_downlevel.obj
 0002:00004640       ??_C@_1M@BMGIGLIF@?$AAe?$AAs?$AA?9?$AAD?$AAO?$AA?$AA@ 0000000180021640     libucrt:lcidtoname_downlevel.obj
 0002:00004650       ??_C@_1BG@CMBHIPBE@?$AAs?$AAr?$AA?9?$AAB?$AAA?$AA?9?$AAC?$AAy?$AAr?$AAl?$AA?$AA@ 0000000180021650     libucrt:lcidtoname_downlevel.obj
 0002:00004668       ??_C@_1O@HEDBLHNP@?$AAs?$AAm?$AAa?$AA?9?$AAS?$AAE?$AA?$AA@ 0000000180021668     libucrt:lcidtoname_downlevel.obj
 0002:00004678       ??_C@_1M@DAGCADIM@?$AAa?$AAr?$AA?9?$AAO?$AAM?$AA?$AA@ 0000000180021678     libucrt:lcidtoname_downlevel.obj
 0002:00004688       ??_C@_1M@FODLMICG@?$AAe?$AAn?$AA?9?$AAJ?$AAM?$AA?$AA@ 0000000180021688     libucrt:lcidtoname_downlevel.obj
 0002:00004698       ??_C@_1M@DNMLCIHB@?$AAe?$AAs?$AA?9?$AAV?$AAE?$AA?$AA@ 0000000180021698     libucrt:lcidtoname_downlevel.obj
 0002:000046a8       ??_C@_1O@EOKHMKJK@?$AAs?$AAm?$AAs?$AA?9?$AAF?$AAI?$AA?$AA@ 00000001800216a8     libucrt:lcidtoname_downlevel.obj
 0002:000046b8       ??_C@_1M@CAFJMKOF@?$AAa?$AAr?$AA?9?$AAY?$AAE?$AA?$AA@ 00000001800216b8     libucrt:lcidtoname_downlevel.obj
 0002:000046c8       ??_C@_1M@CBFHIJLI@?$AAe?$AAn?$AA?9?$AAC?$AAB?$AA?$AA@ 00000001800216c8     libucrt:lcidtoname_downlevel.obj
 0002:000046d8       ??_C@_1M@BGNFLDN@?$AAe?$AAs?$AA?9?$AAC?$AAO?$AA?$AA@ 00000001800216d8     libucrt:lcidtoname_downlevel.obj
 0002:000046e8       ??_C@_1O@JMPHMAMC@?$AAs?$AAm?$AAn?$AA?9?$AAF?$AAI?$AA?$AA@ 00000001800216e8     libucrt:lcidtoname_downlevel.obj
 0002:000046f8       ??_C@_1M@JLANABKE@?$AAa?$AAr?$AA?9?$AAS?$AAY?$AA?$AA@ 00000001800216f8     libucrt:lcidtoname_downlevel.obj
 0002:00004708       ??_C@_1M@HPKGCFGN@?$AAe?$AAn?$AA?9?$AAB?$AAZ?$AA?$AA@ 0000000180021708     libucrt:lcidtoname_downlevel.obj
 0002:00004718       ??_C@_1M@OLJCMLGM@?$AAe?$AAs?$AA?9?$AAP?$AAE?$AA?$AA@ 0000000180021718     libucrt:lcidtoname_downlevel.obj
 0002:00004728       ??_C@_1M@MKKGFKLE@?$AAa?$AAr?$AA?9?$AAJ?$AAO?$AA?$AA@ 0000000180021728     libucrt:lcidtoname_downlevel.obj
 0002:00004738       ??_C@_1M@EKPGLDNI@?$AAe?$AAn?$AA?9?$AAT?$AAT?$AA?$AA@ 0000000180021738     libucrt:lcidtoname_downlevel.obj
 0002:00004748       ??_C@_1M@OONGHFHE@?$AAe?$AAs?$AA?9?$AAA?$AAR?$AA?$AA@ 0000000180021748     libucrt:lcidtoname_downlevel.obj
 0002:00004758       ??_C@_1M@OOJFGBHE@?$AAa?$AAr?$AA?9?$AAL?$AAB?$AA?$AA@ 0000000180021758     libucrt:lcidtoname_downlevel.obj
 0002:00004768       ??_C@_1M@GCEJHNEG@?$AAe?$AAn?$AA?9?$AAZ?$AAW?$AA?$AA@ 0000000180021768     libucrt:lcidtoname_downlevel.obj
 0002:00004778       ??_C@_1M@JNOCAHJI@?$AAe?$AAs?$AA?9?$AAE?$AAC?$AA?$AA@ 0000000180021778     libucrt:lcidtoname_downlevel.obj
 0002:00004788       ??_C@_1M@JEFHPGGB@?$AAa?$AAr?$AA?9?$AAK?$AAW?$AA?$AA@ 0000000180021788     libucrt:lcidtoname_downlevel.obj
 0002:00004798       ??_C@_1M@MLKIBJOJ@?$AAe?$AAn?$AA?9?$AAP?$AAH?$AA?$AA@ 0000000180021798     libucrt:lcidtoname_downlevel.obj
 0002:000047a8       ??_C@_1M@BDNIPEND@?$AAe?$AAs?$AA?9?$AAC?$AAL?$AA?$AA@ 00000001800217a8     libucrt:lcidtoname_downlevel.obj
 0002:000047b8       ??_C@_1M@MPNMEKBD@?$AAa?$AAr?$AA?9?$AAA?$AAE?$AA?$AA@ 00000001800217b8     libucrt:lcidtoname_downlevel.obj
 0002:000047c8       ??_C@_1M@KBJALCPI@?$AAe?$AAs?$AA?9?$AAU?$AAY?$AA?$AA@ 00000001800217c8     libucrt:lcidtoname_downlevel.obj
 0002:000047d8       ??_C@_1M@LLCCOAGA@?$AAa?$AAr?$AA?9?$AAB?$AAH?$AA?$AA@ 00000001800217d8     libucrt:lcidtoname_downlevel.obj
 0002:000047e8       ??_C@_1M@PBFNCDEL@?$AAe?$AAs?$AA?9?$AAP?$AAY?$AA?$AA@ 00000001800217e8     libucrt:lcidtoname_downlevel.obj
 0002:000047f8       ??_C@_1M@EDGINPNP@?$AAa?$AAr?$AA?9?$AAQ?$AAA?$AA?$AA@ 00000001800217f8     libucrt:lcidtoname_downlevel.obj
 0002:00004808       ??_C@_1M@MKDBIIJI@?$AAe?$AAs?$AA?9?$AAB?$AAO?$AA?$AA@ 0000000180021808     libucrt:lcidtoname_downlevel.obj
 0002:00004818       ??_C@_1M@CPKKEBLD@?$AAe?$AAs?$AA?9?$AAS?$AAV?$AA?$AA@ 0000000180021818     libucrt:lcidtoname_downlevel.obj
 0002:00004828       ??_C@_1M@NDBGMMJL@?$AAe?$AAs?$AA?9?$AAH?$AAN?$AA?$AA@ 0000000180021828     libucrt:lcidtoname_downlevel.obj
 0002:00004838       ??_C@_1M@JIJIBHDP@?$AAe?$AAs?$AA?9?$AAN?$AAI?$AA?$AA@ 0000000180021838     libucrt:lcidtoname_downlevel.obj
 0002:00004848       ??_C@_1M@CGFMKEEK@?$AAe?$AAs?$AA?9?$AAP?$AAR?$AA?$AA@ 0000000180021848     libucrt:lcidtoname_downlevel.obj
 0002:00004858       ??_C@_1O@ICJHKIIK@?$AAz?$AAh?$AA?9?$AAC?$AAH?$AAT?$AA?$AA@ 0000000180021858     libucrt:lcidtoname_downlevel.obj
 0002:00004868       ??_C@_15CLNEJCE@?$AAs?$AAr?$AA?$AA@ 0000000180021868     libucrt:lcidtoname_downlevel.obj
 0002:000056b0       ??_C@_1M@KAHEKEIG@?$AAa?$AAf?$AA?9?$AAz?$AAa?$AA?$AA@ 00000001800226b0     libucrt:lcidtoname_downlevel.obj
 0002:000056c0       ??_C@_1M@GIECOABL@?$AAa?$AAr?$AA?9?$AAa?$AAe?$AA?$AA@ 00000001800226c0     libucrt:lcidtoname_downlevel.obj
 0002:000056d0       ??_C@_1M@BMLMEKGI@?$AAa?$AAr?$AA?9?$AAb?$AAh?$AA?$AA@ 00000001800226d0     libucrt:lcidtoname_downlevel.obj
 0002:000056e0       ??_C@_1M@DAPFDGGB@?$AAa?$AAr?$AA?9?$AAd?$AAz?$AA?$AA@ 00000001800226e0     libucrt:lcidtoname_downlevel.obj
 0002:000056f0       ??_C@_1M@FJNKGKIG@?$AAa?$AAr?$AA?9?$AAe?$AAg?$AA?$AA@ 00000001800226f0     libucrt:lcidtoname_downlevel.obj
 0002:00005700       ??_C@_1M@FLGKKCLO@?$AAa?$AAr?$AA?9?$AAi?$AAq?$AA?$AA@ 0000000180022700     libucrt:lcidtoname_downlevel.obj
 0002:00005710       ??_C@_1M@GNDIPALM@?$AAa?$AAr?$AA?9?$AAj?$AAo?$AA?$AA@ 0000000180022710     libucrt:lcidtoname_downlevel.obj
 0002:00005720       ??_C@_1M@DDMJFMGJ@?$AAa?$AAr?$AA?9?$AAk?$AAw?$AA?$AA@ 0000000180022720     libucrt:lcidtoname_downlevel.obj
 0002:00005730       ??_C@_1M@EJALMLHM@?$AAa?$AAr?$AA?9?$AAl?$AAb?$AA?$AA@ 0000000180022730     libucrt:lcidtoname_downlevel.obj
 0002:00005740       ??_C@_1M@MOBDBLOC@?$AAa?$AAr?$AA?9?$AAl?$AAy?$AA?$AA@ 0000000180022740     libucrt:lcidtoname_downlevel.obj
 0002:00005750       ??_C@_1M@JAOCLHDH@?$AAa?$AAr?$AA?9?$AAm?$AAa?$AA?$AA@ 0000000180022750     libucrt:lcidtoname_downlevel.obj
 0002:00005760       ??_C@_1M@JHPMKJIE@?$AAa?$AAr?$AA?9?$AAo?$AAm?$AA?$AA@ 0000000180022760     libucrt:lcidtoname_downlevel.obj
 0002:00005770       ??_C@_1M@OEPGHFNH@?$AAa?$AAr?$AA?9?$AAq?$AAa?$AA?$AA@ 0000000180022770     libucrt:lcidtoname_downlevel.obj
 0002:00005780       ??_C@_1M@KJDONENM@?$AAa?$AAr?$AA?9?$AAs?$AAa?$AA?$AA@ 0000000180022780     libucrt:lcidtoname_downlevel.obj
 0002:00005790       ??_C@_1M@DMJDKLKM@?$AAa?$AAr?$AA?9?$AAs?$AAy?$AA?$AA@ 0000000180022790     libucrt:lcidtoname_downlevel.obj
 0002:000057a0       ??_C@_1M@OMFIPEDC@?$AAa?$AAr?$AA?9?$AAt?$AAn?$AA?$AA@ 00000001800227a0     libucrt:lcidtoname_downlevel.obj
 0002:000057b0       ??_C@_1M@IHMHGAON@?$AAa?$AAr?$AA?9?$AAy?$AAe?$AA?$AA@ 00000001800227b0     libucrt:lcidtoname_downlevel.obj
 0002:000057c0       ??_C@_1BG@KDCPGJGB@?$AAa?$AAz?$AA?9?$AAa?$AAz?$AA?9?$AAc?$AAy?$AAr?$AAl?$AA?$AA@ 00000001800227c0     libucrt:lcidtoname_downlevel.obj
 0002:000057d8       ??_C@_1BG@IBCKDDOE@?$AAa?$AAz?$AA?9?$AAa?$AAz?$AA?9?$AAl?$AAa?$AAt?$AAn?$AA?$AA@ 00000001800227d8     libucrt:lcidtoname_downlevel.obj
 0002:000057f0       ??_C@_1M@EGPFDCPD@?$AAb?$AAe?$AA?9?$AAb?$AAy?$AA?$AA@ 00000001800227f0     libucrt:lcidtoname_downlevel.obj
 0002:00005800       ??_C@_1M@PCMGMCGC@?$AAb?$AAg?$AA?9?$AAb?$AAg?$AA?$AA@ 0000000180022800     libucrt:lcidtoname_downlevel.obj
 0002:00005810       ??_C@_1M@BJBMFGOB@?$AAb?$AAn?$AA?9?$AAi?$AAn?$AA?$AA@ 0000000180022810     libucrt:lcidtoname_downlevel.obj
 0002:00005820       ??_C@_1BG@EAKMMACD@?$AAb?$AAs?$AA?9?$AAb?$AAa?$AA?9?$AAl?$AAa?$AAt?$AAn?$AA?$AA@ 0000000180022820     libucrt:lcidtoname_downlevel.obj
 0002:00005838       ??_C@_1M@KGADAODK@?$AAc?$AAa?$AA?9?$AAe?$AAs?$AA?$AA@ 0000000180022838     libucrt:lcidtoname_downlevel.obj
 0002:00005848       ??_C@_1M@COAJPDHI@?$AAc?$AAs?$AA?9?$AAc?$AAz?$AA?$AA@ 0000000180022848     libucrt:lcidtoname_downlevel.obj
 0002:00005858       ??_C@_1M@DHBHFONH@?$AAc?$AAy?$AA?9?$AAg?$AAb?$AA?$AA@ 0000000180022858     libucrt:lcidtoname_downlevel.obj
 0002:00005868       ??_C@_1M@IMGKELGA@?$AAd?$AAa?$AA?9?$AAd?$AAk?$AA?$AA@ 0000000180022868     libucrt:lcidtoname_downlevel.obj
 0002:00005878       ??_C@_1M@NNDGDNGA@?$AAd?$AAe?$AA?9?$AAa?$AAt?$AA?$AA@ 0000000180022878     libucrt:lcidtoname_downlevel.obj
 0002:00005888       ??_C@_1M@IKDBHEEM@?$AAd?$AAe?$AA?9?$AAc?$AAh?$AA?$AA@ 0000000180022888     libucrt:lcidtoname_downlevel.obj
 0002:00005898       ??_C@_1M@GFFOJMCJ@?$AAd?$AAe?$AA?9?$AAd?$AAe?$AA?$AA@ 0000000180022898     libucrt:lcidtoname_downlevel.obj
 0002:000058a8       ??_C@_1M@MDNLKBPM@?$AAd?$AAe?$AA?9?$AAl?$AAi?$AA?$AA@ 00000001800228a8     libucrt:lcidtoname_downlevel.obj
 0002:000058b8       ??_C@_1M@NJBEEJNL@?$AAd?$AAe?$AA?9?$AAl?$AAu?$AA?$AA@ 00000001800228b8     libucrt:lcidtoname_downlevel.obj
 0002:000058c8       ??_C@_1O@GNNELBAP@?$AAd?$AAi?$AAv?$AA?9?$AAm?$AAv?$AA?$AA@ 00000001800228c8     libucrt:lcidtoname_downlevel.obj
 0002:000058d8       ??_C@_1M@EJLEOGAE@?$AAe?$AAl?$AA?9?$AAg?$AAr?$AA?$AA@ 00000001800228d8     libucrt:lcidtoname_downlevel.obj
 0002:000058e8       ??_C@_1M@GMPONJN@?$AAe?$AAn?$AA?9?$AAa?$AAu?$AA?$AA@ 00000001800228e8     libucrt:lcidtoname_downlevel.obj
 0002:000058f8       ??_C@_1M@NIDIIPGF@?$AAe?$AAn?$AA?9?$AAb?$AAz?$AA?$AA@ 00000001800228f8     libucrt:lcidtoname_downlevel.obj
 0002:00005908       ??_C@_1M@JEHMIMFO@?$AAe?$AAn?$AA?9?$AAc?$AAa?$AA?$AA@ 0000000180022908     libucrt:lcidtoname_downlevel.obj
 0002:00005918       ??_C@_1M@IGMJCDLA@?$AAe?$AAn?$AA?9?$AAc?$AAb?$AA?$AA@ 0000000180022918     libucrt:lcidtoname_downlevel.obj
 0002:00005928       ??_C@_1M@BNFIGBKG@?$AAe?$AAn?$AA?9?$AAg?$AAb?$AA?$AA@ 0000000180022928     libucrt:lcidtoname_downlevel.obj
 0002:00005938       ??_C@_1M@LKIFDIGP@?$AAe?$AAn?$AA?9?$AAi?$AAe?$AA?$AA@ 0000000180022938     libucrt:lcidtoname_downlevel.obj
 0002:00005948       ??_C@_1M@PJKFGCCO@?$AAe?$AAn?$AA?9?$AAj?$AAm?$AA?$AA@ 0000000180022948     libucrt:lcidtoname_downlevel.obj
 0002:00005958       ??_C@_1M@KPPKEPBO@?$AAe?$AAn?$AA?9?$AAn?$AAz?$AA?$AA@ 0000000180022958     libucrt:lcidtoname_downlevel.obj
 0002:00005968       ??_C@_1M@GMDGLDOB@?$AAe?$AAn?$AA?9?$AAp?$AAh?$AA?$AA@ 0000000180022968     libucrt:lcidtoname_downlevel.obj
 0002:00005978       ??_C@_1M@ONGIBJNA@?$AAe?$AAn?$AA?9?$AAt?$AAt?$AA?$AA@ 0000000180022978     libucrt:lcidtoname_downlevel.obj
 0002:00005988       ??_C@_1M@LLODPCMM@?$AAe?$AAn?$AA?9?$AAu?$AAs?$AA?$AA@ 0000000180022988     libucrt:lcidtoname_downlevel.obj
 0002:00005998       ??_C@_1M@LAKFNPAN@?$AAe?$AAn?$AA?9?$AAz?$AAa?$AA?$AA@ 0000000180022998     libucrt:lcidtoname_downlevel.obj
 0002:000059a8       ??_C@_1M@MFNHNHEO@?$AAe?$AAn?$AA?9?$AAz?$AAw?$AA?$AA@ 00000001800229a8     libucrt:lcidtoname_downlevel.obj
 0002:000059b8       ??_C@_1M@EJEINPHM@?$AAe?$AAs?$AA?9?$AAa?$AAr?$AA?$AA@ 00000001800229b8     libucrt:lcidtoname_downlevel.obj
 0002:000059c8       ??_C@_1M@GNKPCCJA@?$AAe?$AAs?$AA?9?$AAb?$AAo?$AA?$AA@ 00000001800229c8     libucrt:lcidtoname_downlevel.obj
 0002:000059d8       ??_C@_1M@LEEGFONL@?$AAe?$AAs?$AA?9?$AAc?$AAl?$AA?$AA@ 00000001800229d8     libucrt:lcidtoname_downlevel.obj
 0002:000059e8       ??_C@_1M@KGPDPBDF@?$AAe?$AAs?$AA?9?$AAc?$AAo?$AA?$AA@ 00000001800229e8     libucrt:lcidtoname_downlevel.obj
 0002:000059f8       ??_C@_1M@EIAHOHH@?$AAe?$AAs?$AA?9?$AAc?$AAr?$AA?$AA@ 00000001800229f8     libucrt:lcidtoname_downlevel.obj
 0002:00005a08       ??_C@_1M@LLPGMBIN@?$AAe?$AAs?$AA?9?$AAd?$AAo?$AA?$AA@ 0000000180022a08     libucrt:lcidtoname_downlevel.obj
 0002:00005a18       ??_C@_1M@DKHMKNJA@?$AAe?$AAs?$AA?9?$AAe?$AAc?$AA?$AA@ 0000000180022a18     libucrt:lcidtoname_downlevel.obj
 0002:00005a28       ??_C@_1M@GKGFPKAP@?$AAe?$AAs?$AA?9?$AAe?$AAs?$AA?$AA@ 0000000180022a28     libucrt:lcidtoname_downlevel.obj
 0002:00005a38       ??_C@_1M@LKHKGDLN@?$AAe?$AAs?$AA?9?$AAg?$AAt?$AA?$AA@ 0000000180022a38     libucrt:lcidtoname_downlevel.obj
 0002:00005a48       ??_C@_1M@HEIIGGJD@?$AAe?$AAs?$AA?9?$AAh?$AAn?$AA?$AA@ 0000000180022a48     libucrt:lcidtoname_downlevel.obj
 0002:00005a58       ??_C@_1M@FBDHPPGD@?$AAe?$AAs?$AA?9?$AAm?$AAx?$AA?$AA@ 0000000180022a58     libucrt:lcidtoname_downlevel.obj
 0002:00005a68       ??_C@_1M@DPAGLNDH@?$AAe?$AAs?$AA?9?$AAn?$AAi?$AA?$AA@ 0000000180022a68     libucrt:lcidtoname_downlevel.obj
 0002:00005a78       ??_C@_1M@MDGOPGDD@?$AAe?$AAs?$AA?9?$AAp?$AAa?$AA?$AA@ 0000000180022a78     libucrt:lcidtoname_downlevel.obj
 0002:00005a88       ??_C@_1M@EMAMGBGE@?$AAe?$AAs?$AA?9?$AAp?$AAe?$AA?$AA@ 0000000180022a88     libucrt:lcidtoname_downlevel.obj
 0002:00005a98       ??_C@_1M@IBMCAOEC@?$AAe?$AAs?$AA?9?$AAp?$AAr?$AA?$AA@ 0000000180022a98     libucrt:lcidtoname_downlevel.obj
 0002:00005aa8       ??_C@_1M@FGMDIJED@?$AAe?$AAs?$AA?9?$AAp?$AAy?$AA?$AA@ 0000000180022aa8     libucrt:lcidtoname_downlevel.obj
 0002:00005ab8       ??_C@_1M@IIDEOLLL@?$AAe?$AAs?$AA?9?$AAs?$AAv?$AA?$AA@ 0000000180022ab8     libucrt:lcidtoname_downlevel.obj
 0002:00005ac8       ??_C@_1M@GAOBIPA@?$AAe?$AAs?$AA?9?$AAu?$AAy?$AA?$AA@ 0000000180022ac8     libucrt:lcidtoname_downlevel.obj
 0002:00005ad8       ??_C@_1M@JKFFICHJ@?$AAe?$AAs?$AA?9?$AAv?$AAe?$AA?$AA@ 0000000180022ad8     libucrt:lcidtoname_downlevel.obj
 0002:00005ae8       ??_C@_1M@PNMLOJDF@?$AAe?$AAt?$AA?9?$AAe?$AAe?$AA?$AA@ 0000000180022ae8     libucrt:lcidtoname_downlevel.obj
 0002:00005af8       ??_C@_1M@GHHLIKEI@?$AAe?$AAu?$AA?9?$AAe?$AAs?$AA?$AA@ 0000000180022af8     libucrt:lcidtoname_downlevel.obj
 0002:00005b08       ??_C@_1M@PBNONODE@?$AAf?$AAa?$AA?9?$AAi?$AAr?$AA?$AA@ 0000000180022b08     libucrt:lcidtoname_downlevel.obj
 0002:00005b18       ??_C@_1M@JEEHPMIL@?$AAf?$AAi?$AA?9?$AAf?$AAi?$AA?$AA@ 0000000180022b18     libucrt:lcidtoname_downlevel.obj
 0002:00005b28       ??_C@_1M@LMDCNDBA@?$AAf?$AAo?$AA?9?$AAf?$AAo?$AA?$AA@ 0000000180022b28     libucrt:lcidtoname_downlevel.obj
 0002:00005b38       ??_C@_1M@JKEOHLDK@?$AAf?$AAr?$AA?9?$AAb?$AAe?$AA?$AA@ 0000000180022b38     libucrt:lcidtoname_downlevel.obj
 0002:00005b48       ??_C@_1M@NOHADPMI@?$AAf?$AAr?$AA?9?$AAc?$AAa?$AA?$AA@ 0000000180022b48     libucrt:lcidtoname_downlevel.obj
 0002:00005b58       ??_C@_1M@KDHIHAEC@?$AAf?$AAr?$AA?9?$AAc?$AAh?$AA?$AA@ 0000000180022b58     libucrt:lcidtoname_downlevel.obj
 0002:00005b68       ??_C@_1M@MMBBFGAK@?$AAf?$AAr?$AA?9?$AAf?$AAr?$AA?$AA@ 0000000180022b68     libucrt:lcidtoname_downlevel.obj
 0002:00005b78       ??_C@_1M@PAFNENNF@?$AAf?$AAr?$AA?9?$AAl?$AAu?$AA?$AA@ 0000000180022b78     libucrt:lcidtoname_downlevel.obj
 0002:00005b88       ??_C@_1M@EOHDJGDD@?$AAf?$AAr?$AA?9?$AAm?$AAc?$AA?$AA@ 0000000180022b88     libucrt:lcidtoname_downlevel.obj
 0002:00005b98       ??_C@_1M@FAPLLOPF@?$AAg?$AAl?$AA?9?$AAe?$AAs?$AA?$AA@ 0000000180022b98     libucrt:lcidtoname_downlevel.obj
 0002:00005ba8       ??_C@_1M@FOPBFLOO@?$AAg?$AAu?$AA?9?$AAi?$AAn?$AA?$AA@ 0000000180022ba8     libucrt:lcidtoname_downlevel.obj
 0002:00005bb8       ??_C@_1M@KBMCINPM@?$AAh?$AAe?$AA?9?$AAi?$AAl?$AA?$AA@ 0000000180022bb8     libucrt:lcidtoname_downlevel.obj
 0002:00005bc8       ??_C@_1M@BBPHKFPJ@?$AAh?$AAi?$AA?9?$AAi?$AAn?$AA?$AA@ 0000000180022bc8     libucrt:lcidtoname_downlevel.obj
 0002:00005bd8       ??_C@_1M@PMBNDPHD@?$AAh?$AAr?$AA?9?$AAb?$AAa?$AA?$AA@ 0000000180022bd8     libucrt:lcidtoname_downlevel.obj
 0002:00005be8       ??_C@_1M@BPCKOEGE@?$AAh?$AAr?$AA?9?$AAh?$AAr?$AA?$AA@ 0000000180022be8     libucrt:lcidtoname_downlevel.obj
 0002:00005bf8       ??_C@_1M@GACBMHKE@?$AAh?$AAu?$AA?9?$AAh?$AAu?$AA?$AA@ 0000000180022bf8     libucrt:lcidtoname_downlevel.obj
 0002:00005c08       ??_C@_1M@MILPAJJC@?$AAh?$AAy?$AA?9?$AAa?$AAm?$AA?$AA@ 0000000180022c08     libucrt:lcidtoname_downlevel.obj
 0002:00005c18       ??_C@_1M@BABBICEC@?$AAi?$AAd?$AA?9?$AAi?$AAd?$AA?$AA@ 0000000180022c18     libucrt:lcidtoname_downlevel.obj
 0002:00005c28       ??_C@_1M@BIKNHHPF@?$AAi?$AAs?$AA?9?$AAi?$AAs?$AA?$AA@ 0000000180022c28     libucrt:lcidtoname_downlevel.obj
 0002:00005c38       ??_C@_1M@NMPCJPHE@?$AAi?$AAt?$AA?9?$AAc?$AAh?$AA?$AA@ 0000000180022c38     libucrt:lcidtoname_downlevel.obj
 0002:00005c48       ??_C@_1M@GHKGFEDF@?$AAi?$AAt?$AA?9?$AAi?$AAt?$AA?$AA@ 0000000180022c48     libucrt:lcidtoname_downlevel.obj
 0002:00005c58       ??_C@_1M@NIEJCJJA@?$AAj?$AAa?$AA?9?$AAj?$AAp?$AA?$AA@ 0000000180022c58     libucrt:lcidtoname_downlevel.obj
 0002:00005c68       ??_C@_1M@JILFNBIM@?$AAk?$AAa?$AA?9?$AAg?$AAe?$AA?$AA@ 0000000180022c68     libucrt:lcidtoname_downlevel.obj
 0002:00005c78       ??_C@_1M@PACPMGPH@?$AAk?$AAk?$AA?9?$AAk?$AAz?$AA?$AA@ 0000000180022c78     libucrt:lcidtoname_downlevel.obj
 0002:00005c88       ??_C@_1M@IELFGMHA@?$AAk?$AAn?$AA?9?$AAi?$AAn?$AA?$AA@ 0000000180022c88     libucrt:lcidtoname_downlevel.obj
 0002:00005c98       ??_C@_1O@IBBJHCH@?$AAk?$AAo?$AAk?$AA?9?$AAi?$AAn?$AA?$AA@ 0000000180022c98     libucrt:lcidtoname_downlevel.obj
 0002:00005ca8       ??_C@_1M@DMHAEOGC@?$AAk?$AAo?$AA?9?$AAk?$AAr?$AA?$AA@ 0000000180022ca8     libucrt:lcidtoname_downlevel.obj
 0002:00005cb8       ??_C@_1M@HBAHBIGA@?$AAk?$AAy?$AA?9?$AAk?$AAg?$AA?$AA@ 0000000180022cb8     libucrt:lcidtoname_downlevel.obj
 0002:00005cc8       ??_C@_1M@KPMILCJG@?$AAl?$AAt?$AA?9?$AAl?$AAt?$AA?$AA@ 0000000180022cc8     libucrt:lcidtoname_downlevel.obj
 0002:00005cd8       ??_C@_1M@BDEKKCA@?$AAl?$AAv?$AA?9?$AAl?$AAv?$AA?$AA@ 0000000180022cd8     libucrt:lcidtoname_downlevel.obj
 0002:00005ce8       ??_C@_1M@ELCKCCJJ@?$AAm?$AAi?$AA?9?$AAn?$AAz?$AA?$AA@ 0000000180022ce8     libucrt:lcidtoname_downlevel.obj
 0002:00005cf8       ??_C@_1M@CBOOLAPA@?$AAm?$AAk?$AA?9?$AAm?$AAk?$AA?$AA@ 0000000180022cf8     libucrt:lcidtoname_downlevel.obj
 0002:00005d08       ??_C@_1M@GPHNBJKN@?$AAm?$AAl?$AA?9?$AAi?$AAn?$AA?$AA@ 0000000180022d08     libucrt:lcidtoname_downlevel.obj
 0002:00005d18       ??_C@_1M@PABJILIG@?$AAm?$AAn?$AA?9?$AAm?$AAn?$AA?$AA@ 0000000180022d18     libucrt:lcidtoname_downlevel.obj
 0002:00005d28       ??_C@_1M@FGBKKIPG@?$AAm?$AAr?$AA?9?$AAi?$AAn?$AA?$AA@ 0000000180022d28     libucrt:lcidtoname_downlevel.obj
 0002:00005d38       ??_C@_1M@NDBPDDAL@?$AAm?$AAs?$AA?9?$AAb?$AAn?$AA?$AA@ 0000000180022d38     libucrt:lcidtoname_downlevel.obj
 0002:00005d48       ??_C@_1M@OPIHOOPI@?$AAm?$AAs?$AA?9?$AAm?$AAy?$AA?$AA@ 0000000180022d48     libucrt:lcidtoname_downlevel.obj
 0002:00005d58       ??_C@_1M@PPDBCNFM@?$AAm?$AAt?$AA?9?$AAm?$AAt?$AA?$AA@ 0000000180022d58     libucrt:lcidtoname_downlevel.obj
 0002:00005d68       ??_C@_1M@KDJDKMDD@?$AAn?$AAb?$AA?9?$AAn?$AAo?$AA?$AA@ 0000000180022d68     libucrt:lcidtoname_downlevel.obj
 0002:00005d78       ??_C@_1M@KFCFLMJP@?$AAn?$AAl?$AA?9?$AAb?$AAe?$AA?$AA@ 0000000180022d78     libucrt:lcidtoname_downlevel.obj
 0002:00005d88       ??_C@_1M@KPOPDDGO@?$AAn?$AAl?$AA?9?$AAn?$AAl?$AA?$AA@ 0000000180022d88     libucrt:lcidtoname_downlevel.obj
 0002:00005d98       ??_C@_1M@LJKPEMLN@?$AAn?$AAn?$AA?9?$AAn?$AAo?$AA?$AA@ 0000000180022d98     libucrt:lcidtoname_downlevel.obj
 0002:00005da8       ??_C@_1M@BDGHHBFL@?$AAn?$AAs?$AA?9?$AAz?$AAa?$AA?$AA@ 0000000180022da8     libucrt:lcidtoname_downlevel.obj
 0002:00005db8       ??_C@_1M@IDEHOAP@?$AAp?$AAa?$AA?9?$AAi?$AAn?$AA?$AA@ 0000000180022db8     libucrt:lcidtoname_downlevel.obj
 0002:00005dc8       ??_C@_1M@HDBKGOGH@?$AAp?$AAl?$AA?9?$AAp?$AAl?$AA?$AA@ 0000000180022dc8     libucrt:lcidtoname_downlevel.obj
 0002:00005dd8       ??_C@_1M@LJLLCMEH@?$AAp?$AAt?$AA?9?$AAb?$AAr?$AA?$AA@ 0000000180022dd8     libucrt:lcidtoname_downlevel.obj
 0002:00005de8       ??_C@_1M@NCMONAAL@?$AAp?$AAt?$AA?9?$AAp?$AAt?$AA?$AA@ 0000000180022de8     libucrt:lcidtoname_downlevel.obj
 0002:00005df8       ??_C@_1O@EAKMAJDN@?$AAq?$AAu?$AAz?$AA?9?$AAb?$AAo?$AA?$AA@ 0000000180022df8     libucrt:lcidtoname_downlevel.obj
 0002:00005e08       ??_C@_1O@BHHPIGDN@?$AAq?$AAu?$AAz?$AA?9?$AAe?$AAc?$AA?$AA@ 0000000180022e08     libucrt:lcidtoname_downlevel.obj
 0002:00005e18       ??_C@_1O@GBAPEKMJ@?$AAq?$AAu?$AAz?$AA?9?$AAp?$AAe?$AA?$AA@ 0000000180022e18     libucrt:lcidtoname_downlevel.obj
 0002:00005e28       ??_C@_1M@CLGLEFBO@?$AAr?$AAo?$AA?9?$AAr?$AAo?$AA?$AA@ 0000000180022e28     libucrt:lcidtoname_downlevel.obj
 0002:00005e38       ??_C@_1M@CEEDODME@?$AAr?$AAu?$AA?9?$AAr?$AAu?$AA?$AA@ 0000000180022e38     libucrt:lcidtoname_downlevel.obj
 0002:00005e48       ??_C@_1M@HPKKKMPP@?$AAs?$AAa?$AA?9?$AAi?$AAn?$AA?$AA@ 0000000180022e48     libucrt:lcidtoname_downlevel.obj
 0002:00005e58       ??_C@_1M@BKMAIGOJ@?$AAs?$AAe?$AA?9?$AAf?$AAi?$AA?$AA@ 0000000180022e58     libucrt:lcidtoname_downlevel.obj
 0002:00005e68       ??_C@_1M@NDPIFLFI@?$AAs?$AAe?$AA?9?$AAn?$AAo?$AA?$AA@ 0000000180022e68     libucrt:lcidtoname_downlevel.obj
 0002:00005e78       ??_C@_1M@DANKKHJ@?$AAs?$AAe?$AA?9?$AAs?$AAe?$AA?$AA@ 0000000180022e78     libucrt:lcidtoname_downlevel.obj
 0002:00005e88       ??_C@_1M@PNBLONPJ@?$AAs?$AAk?$AA?9?$AAs?$AAk?$AA?$AA@ 0000000180022e88     libucrt:lcidtoname_downlevel.obj
 0002:00005e98       ??_C@_1M@LFMODOAL@?$AAs?$AAl?$AA?9?$AAs?$AAi?$AA?$AA@ 0000000180022e98     libucrt:lcidtoname_downlevel.obj
 0002:00005ea8       ??_C@_1O@DFKOMPG@?$AAs?$AAm?$AAa?$AA?9?$AAn?$AAo?$AA?$AA@ 0000000180022ea8     libucrt:lcidtoname_downlevel.obj
 0002:00005eb8       ??_C@_1O@NDKPBNNH@?$AAs?$AAm?$AAa?$AA?9?$AAs?$AAe?$AA?$AA@ 0000000180022eb8     libucrt:lcidtoname_downlevel.obj
 0002:00005ec8       ??_C@_1O@PLLKBHAB@?$AAs?$AAm?$AAj?$AA?9?$AAn?$AAo?$AA?$AA@ 0000000180022ec8     libucrt:lcidtoname_downlevel.obj
 0002:00005ed8       ??_C@_1O@CLEPOGCA@?$AAs?$AAm?$AAj?$AA?9?$AAs?$AAe?$AA?$AA@ 0000000180022ed8     libucrt:lcidtoname_downlevel.obj
 0002:00005ee8       ??_C@_1O@DLGJGKMK@?$AAs?$AAm?$AAn?$AA?9?$AAf?$AAi?$AA?$AA@ 0000000180022ee8     libucrt:lcidtoname_downlevel.obj
 0002:00005ef8       ??_C@_1O@OJDJGAJC@?$AAs?$AAm?$AAs?$AA?9?$AAf?$AAi?$AA?$AA@ 0000000180022ef8     libucrt:lcidtoname_downlevel.obj
 0002:00005f08       ??_C@_1M@BOFOGHPB@?$AAs?$AAq?$AA?9?$AAa?$AAl?$AA?$AA@ 0000000180022f08     libucrt:lcidtoname_downlevel.obj
 0002:00005f18       ??_C@_1BG@LJBBIPGB@?$AAs?$AAr?$AA?9?$AAb?$AAa?$AA?9?$AAc?$AAy?$AAr?$AAl?$AA?$AA@ 0000000180022f18     libucrt:lcidtoname_downlevel.obj
 0002:00005f30       ??_C@_1BG@JLBENFOE@?$AAs?$AAr?$AA?9?$AAb?$AAa?$AA?9?$AAl?$AAa?$AAt?$AAn?$AA?$AA@ 0000000180022f30     libucrt:lcidtoname_downlevel.obj
 0002:00005f48       ??_C@_1BG@KODPNHE@?$AAs?$AAr?$AA?9?$AAs?$AAp?$AA?9?$AAc?$AAy?$AAr?$AAl?$AA?$AA@ 0000000180022f48     libucrt:lcidtoname_downlevel.obj
 0002:00005f60       ??_C@_1BG@CIOGKHPB@?$AAs?$AAr?$AA?9?$AAs?$AAp?$AA?9?$AAl?$AAa?$AAt?$AAn?$AA?$AA@ 0000000180022f60     libucrt:lcidtoname_downlevel.obj
 0002:00005f78       ??_C@_1M@NGFJLMAC@?$AAs?$AAv?$AA?9?$AAf?$AAi?$AA?$AA@ 0000000180022f78     libucrt:lcidtoname_downlevel.obj
 0002:00005f88       ??_C@_1M@MPJEJAJC@?$AAs?$AAv?$AA?9?$AAs?$AAe?$AA?$AA@ 0000000180022f88     libucrt:lcidtoname_downlevel.obj
 0002:00005f98       ??_C@_1M@MPNDHLFK@?$AAs?$AAw?$AA?9?$AAk?$AAe?$AA?$AA@ 0000000180022f98     libucrt:lcidtoname_downlevel.obj
 0002:00005fa8       ??_C@_1O@KOHBJJI@?$AAs?$AAy?$AAr?$AA?9?$AAs?$AAy?$AA?$AA@ 0000000180022fa8     libucrt:lcidtoname_downlevel.obj
 0002:00005fb8       ??_C@_1M@LDCEFHA@?$AAt?$AAa?$AA?9?$AAi?$AAn?$AA?$AA@ 0000000180022fb8     libucrt:lcidtoname_downlevel.obj
 0002:00005fc8       ??_C@_1M@CNJOFAK@?$AAt?$AAe?$AA?9?$AAi?$AAn?$AA?$AA@ 0000000180022fc8     libucrt:lcidtoname_downlevel.obj
 0002:00005fd8       ??_C@_1M@GNAECACD@?$AAt?$AAh?$AA?9?$AAt?$AAh?$AA?$AA@ 0000000180022fd8     libucrt:lcidtoname_downlevel.obj
 0002:00005fe8       ??_C@_1M@CHBIHOJO@?$AAt?$AAn?$AA?9?$AAz?$AAa?$AA?$AA@ 0000000180022fe8     libucrt:lcidtoname_downlevel.obj
 0002:00005ff8       ??_C@_1M@GCCMIGPJ@?$AAt?$AAr?$AA?9?$AAt?$AAr?$AA?$AA@ 0000000180022ff8     libucrt:lcidtoname_downlevel.obj
 0002:00006008       ??_C@_1M@CELMCNBK@?$AAt?$AAt?$AA?9?$AAr?$AAu?$AA?$AA@ 0000000180023008     libucrt:lcidtoname_downlevel.obj
 0002:00006018       ??_C@_1M@KLMCELGA@?$AAu?$AAk?$AA?9?$AAu?$AAa?$AA?$AA@ 0000000180023018     libucrt:lcidtoname_downlevel.obj
 0002:00006028       ??_C@_1M@EPAJJAJF@?$AAu?$AAr?$AA?9?$AAp?$AAk?$AA?$AA@ 0000000180023028     libucrt:lcidtoname_downlevel.obj
 0002:00006038       ??_C@_1BG@GEGPMCDJ@?$AAu?$AAz?$AA?9?$AAu?$AAz?$AA?9?$AAc?$AAy?$AAr?$AAl?$AA?$AA@ 0000000180023038     libucrt:lcidtoname_downlevel.obj
 0002:00006050       ??_C@_1BG@EGGKJILM@?$AAu?$AAz?$AA?9?$AAu?$AAz?$AA?9?$AAl?$AAa?$AAt?$AAn?$AA?$AA@ 0000000180023050     libucrt:lcidtoname_downlevel.obj
 0002:00006068       ??_C@_1M@GFOCLFF@?$AAv?$AAi?$AA?9?$AAv?$AAn?$AA?$AA@ 0000000180023068     libucrt:lcidtoname_downlevel.obj
 0002:00006078       ??_C@_1M@CPAMEDFI@?$AAx?$AAh?$AA?9?$AAz?$AAa?$AA?$AA@ 0000000180023078     libucrt:lcidtoname_downlevel.obj
 0002:00006088       ??_C@_1O@EBKIFIGN@?$AAz?$AAh?$AA?9?$AAc?$AAh?$AAs?$AA?$AA@ 0000000180023088     libucrt:lcidtoname_downlevel.obj
 0002:00006098       ??_C@_1O@NMHPGANE@?$AAz?$AAh?$AA?9?$AAc?$AAh?$AAt?$AA?$AA@ 0000000180023098     libucrt:lcidtoname_downlevel.obj
 0002:000060a8       ??_C@_1M@LPINJOMC@?$AAz?$AAh?$AA?9?$AAc?$AAn?$AA?$AA@ 00000001800230a8     libucrt:lcidtoname_downlevel.obj
 0002:000060b8       ??_C@_1M@OCJEJODD@?$AAz?$AAh?$AA?9?$AAh?$AAk?$AA?$AA@ 00000001800230b8     libucrt:lcidtoname_downlevel.obj
 0002:000060c8       ??_C@_1M@DNDLJINH@?$AAz?$AAh?$AA?9?$AAm?$AAo?$AA?$AA@ 00000001800230c8     libucrt:lcidtoname_downlevel.obj
 0002:000060d8       ??_C@_1M@MBFDNDND@?$AAz?$AAh?$AA?9?$AAs?$AAg?$AA?$AA@ 00000001800230d8     libucrt:lcidtoname_downlevel.obj
 0002:000060e8       ??_C@_1M@IMEPLEPE@?$AAz?$AAh?$AA?9?$AAt?$AAw?$AA?$AA@ 00000001800230e8     libucrt:lcidtoname_downlevel.obj
 0002:000060f8       ??_C@_1M@BBGHNHJP@?$AAz?$AAu?$AA?9?$AAz?$AAa?$AA?$AA@ 00000001800230f8     libucrt:lcidtoname_downlevel.obj
 0002:00006110       ?large_power_data@?1??multiply_by_power_of_ten@__crt_strtox@@YA_NAEAUbig_integer@2@I@Z@4QBIB 0000000180023110     libucrt:cfout.obj
 0002:00006a20       ?large_power_indices@?1??multiply_by_power_of_ten@__crt_strtox@@YA_NAEAUbig_integer@2@I@Z@4QBUunpack_index@?1??12@YA_N0I@Z@B 0000000180023a20     libucrt:cfout.obj
 0002:00006ab8       ?small_powers_of_ten@?6??multiply_by_power_of_ten@__crt_strtox@@YA_NAEAUbig_integer@2@I@Z@4QBIB 0000000180023ab8     libucrt:cfout.obj
 0002:00006adc       ??_C@_01GBGANLPD@0?$AA@    0000000180023adc     libucrt:cfout.obj
 0002:00006ae0       ??_C@_05DNEBIAHO@1?$CDINF?$AA@ 0000000180023ae0     libucrt:cfout.obj
 0002:00006ae8       ??_C@_06IMKFLFPG@1?$CDQNAN?$AA@ 0000000180023ae8     libucrt:cfout.obj
 0002:00006af0       ??_C@_06PGGFOGJG@1?$CDSNAN?$AA@ 0000000180023af0     libucrt:cfout.obj
 0002:00006af8       ??_C@_05PHHOCPM@1?$CDIND?$AA@ 0000000180023af8     libucrt:cfout.obj
 0002:00006b00       __real@3ff0000000000000    0000000180023b00     libucrt:ceil.obj
 0002:00006d60       ??_C@_1BA@BALFACEM@?$AAC?$AAO?$AAN?$AAO?$AAU?$AAT?$AA$?$AA?$AA@ 0000000180023d60     libucrt:initcon.obj
 0002:00006d70       __log10_256_lead           0000000180023d70     libucrt:log10_256_lead_tail_table.obj
 0002:00007580       __log10_256_tail           0000000180024580     libucrt:log10_256_lead_tail_table.obj
 0002:00007d90       __log_F_inv_qword          0000000180024d90     libucrt:log_f_inv_qword_table.obj
 0002:000085a0       ??_C@_05HGHHAHAP@log10?$AA@ 00000001800255a0     libucrt:log_special.obj
 0002:000085c0       __xmm@80000000000000008000000000000000 00000001800255c0     libucrt:fpexcept.obj
 0002:000085d0       ??_C@_0BA@JFNIOLAK@string?5too?5long?$AA@ 00000001800255d0     kinect2.obj
 0002:000085e0       ??_C@_1MK@JAMMMBPF@?$AAc?$AA?3?$AA?2?$AAk?$AAi?$AAn?$AAe?$AAc?$AAt?$AAr?$AAo?$AAn?$AA?2?$AAl?$AAi?$AAs?$AAa?$AAg?$AAi?$AAt?$AA?2?$AAk?$AAi?$AAn?$AAe?$AAc?$AAt?$AAr?$AAo?$AAn?$AA?2?$AAa@ 00000001800255e0     kinect2.obj
 0002:000086b0       ??_C@_1FK@CBGIJHDF@?$AAv?$AAa?$AAl?$AAu?$AAe?$AA?4?$AAs?$AAi?$AAz?$AAe?$AA?$CI?$AA?$CJ?$AA?5?$AA?$DM?$AA?$DN?$AA?5?$AAI?$AAN?$AAT?$AA_?$AAM?$AAA?$AAX?$AA?5?$AA?$CG?$AA?$CG?$AA?5?$AA?$CC?$AAs?$AAt?$AAr?$AAi@ 00000001800256b0     kinect2.obj
 0002:00008710       ??_C@_09HEAHDOOB@bodyIndex?$AA@ 0000000180025710     kinect2.obj
 0002:00008720       ??_C@_07HHKAHIPG@tracked?$AA@ 0000000180025720     kinect2.obj
 0002:00008728       ??_C@_0L@GFCAFAIP@trackingId?$AA@ 0000000180025728     kinect2.obj
 0002:00008738       ??_C@_0O@CAGJOCHK@leftHandState?$AA@ 0000000180025738     kinect2.obj
 0002:00008748       ??_C@_0P@IFBFPLFP@rightHandState?$AA@ 0000000180025748     kinect2.obj
 0002:00008758       ??_C@_06GMHKEMFO@depthX?$AA@ 0000000180025758     kinect2.obj
 0002:00008760       ??_C@_06HFGBHNBP@depthY?$AA@ 0000000180025760     kinect2.obj
 0002:00008768       ??_C@_06DLPPNNAN@colorX?$AA@ 0000000180025768     kinect2.obj
 0002:00008770       ??_C@_06CCOEOMEM@colorY?$AA@ 0000000180025770     kinect2.obj
 0002:00008778       ??_C@_07PGIBDKHK@cameraX?$AA@ 0000000180025778     kinect2.obj
 0002:00008780       ??_C@_07OPJKALDL@cameraY?$AA@ 0000000180025780     kinect2.obj
 0002:00008788       ??_C@_07MELHFIPI@cameraZ?$AA@ 0000000180025788     kinect2.obj
 0002:00008790       ??_C@_0N@MLKLMADB@orientationX?$AA@ 0000000180025790     kinect2.obj
 0002:000087a0       ??_C@_0N@NCLAPBHA@orientationY?$AA@ 00000001800257a0     kinect2.obj
 0002:000087b0       ??_C@_0N@PJJNKCLD@orientationZ?$AA@ 00000001800257b0     kinect2.obj
 0002:000087c0       ??_C@_0N@EMDDNMPO@orientationW?$AA@ 00000001800257c0     kinect2.obj
 0002:000087d0       ??_C@_0M@JFJMCGKB@floorDepthX?$AA@ 00000001800257d0     kinect2.obj
 0002:000087e0       ??_C@_0M@IMIHBHOA@floorDepthY?$AA@ 00000001800257e0     kinect2.obj
 0002:000087f0       ??_C@_0M@MCBJLHPC@floorColorX?$AA@ 00000001800257f0     kinect2.obj
 0002:00008800       ??_C@_0M@NLACIGLD@floorColorY?$AA@ 0000000180025800     kinect2.obj
 0002:00008810       ??_C@_0N@NLHKDDJN@floorCameraX?$AA@ 0000000180025810     kinect2.obj
 0002:00008820       ??_C@_0N@MCGBACNM@floorCameraY?$AA@ 0000000180025820     kinect2.obj
 0002:00008830       ??_C@_0N@OJEMFBBP@floorCameraZ?$AA@ 0000000180025830     kinect2.obj
 0002:00008840       ??_C@_06KMMGPBBA@joints?$AA@ 0000000180025840     kinect2.obj
 0002:00008848       ??_C@_06OHIKIKDI@bodies?$AA@ 0000000180025848     kinect2.obj
 0002:00008850       ??_C@_01FJMABOPO@x?$AA@    0000000180025850     kinect2.obj
 0002:00008854       ??_C@_01EANLCPLP@y?$AA@    0000000180025854     kinect2.obj
 0002:00008858       ??_C@_01GLPGHMHM@z?$AA@    0000000180025858     kinect2.obj
 0002:0000885c       ??_C@_01NOFIACDB@w?$AA@    000000018002585c     kinect2.obj
 0002:00008860       ??_C@_0P@FOMILKJA@floorClipPlane?$AA@ 0000000180025860     kinect2.obj
 0002:00008870       ??_C@_06HOHPNJLC@buffer?$AA@ 0000000180025870     kinect2.obj
 0002:00008878       ??_C@_0BG@NDEHMMOL@horizontalFieldOfView?$AA@ 0000000180025878     kinect2.obj
 0002:00008890       ??_C@_0BE@JJCBCGPA@verticalFieldOfView?$AA@ 0000000180025890     kinect2.obj
 0002:000088a8       ??_C@_0BE@HMJBLDFF@diagonalFieldOfView?$AA@ 00000001800258a8     kinect2.obj
 0002:000088bc       ??_C@_05PEENBMOG@color?$AA@ 00000001800258bc     kinect2.obj
 0002:000088c4       ??_C@_05BJGJGKJC@depth?$AA@ 00000001800258c4     kinect2.obj
 0002:000088d0       ??_C@_08KCNFHPHK@rawDepth?$AA@ 00000001800258d0     kinect2.obj
 0002:000088e0       ??_C@_0L@JOIHHNCM@depthColor?$AA@ 00000001800258e0     kinect2.obj
 0002:000088ec       ??_C@_04IEJGKNJ@body?$AA@  00000001800258ec     kinect2.obj
 0002:000088f8       ??_C@_0P@PGIAIMAG@bodyIndexColor?$AA@ 00000001800258f8     kinect2.obj
 0002:00008908       ??_C@_08PPIJGMPL@callback?$AA@ 0000000180025908     kinect2.obj
 0002:00008918       ??_C@_0L@EFDBEPDP@frameTypes?$AA@ 0000000180025918     kinect2.obj
 0002:00008928       ??_C@_0BG@FJNJLFH@includeJointFloorData?$AA@ 0000000180025928     kinect2.obj
 0002:00008940       ??_C@_04PMOCAHAA@open?$AA@ 0000000180025940     kinect2.obj
 0002:00008948       ??_C@_05LBOHBHFK@close?$AA@ 0000000180025948     kinect2.obj
 0002:00008950       ??_C@_0BA@NDANMCOI@openColorReader?$AA@ 0000000180025950     kinect2.obj
 0002:00008960       ??_C@_0BB@JGLNFEND@closeColorReader?$AA@ 0000000180025960     kinect2.obj
 0002:00008978       ??_C@_0BD@EJGPPOEB@openInfraredReader?$AA@ 0000000180025978     kinect2.obj
 0002:00008990       ??_C@_0BE@INCLGKGF@closeInfraredReader?$AA@ 0000000180025990     kinect2.obj
 0002:000089a8       ??_C@_0BP@EMJHDFHG@openLongExposureInfraredReader?$AA@ 00000001800259a8     kinect2.obj
 0002:000089c8       ??_C@_0CA@EMBEKCLJ@closeLongExposureInfraredReader?$AA@ 00000001800259c8     kinect2.obj
 0002:000089e8       ??_C@_0BA@LLEGODMK@openDepthReader?$AA@ 00000001800259e8     kinect2.obj
 0002:000089f8       ??_C@_0BB@POPGHFPB@closeDepthReader?$AA@ 00000001800259f8     kinect2.obj
 0002:00008a10       ??_C@_0BD@EPNAHPHP@openRawDepthReader?$AA@ 0000000180025a10     kinect2.obj
 0002:00008a28       ??_C@_0BE@ILJEOLFL@closeRawDepthReader?$AA@ 0000000180025a28     kinect2.obj
 0002:00008a40       ??_C@_0P@LFGCPANJ@openBodyReader?$AA@ 0000000180025a40     kinect2.obj
 0002:00008a50       ??_C@_0BA@NKKILOPE@closeBodyReader?$AA@ 0000000180025a50     kinect2.obj
 0002:00008a60       ??_C@_0BG@DCABGHKG@openMultiSourceReader?$AA@ 0000000180025a60     kinect2.obj
 0002:00008a78       ??_C@_0BH@GJNJEDMJ@closeMultiSourceReader?$AA@ 0000000180025a78     kinect2.obj
 0002:00008a90       ??_C@_0BK@ECAOJNAF@trackPixelsForBodyIndices?$AA@ 0000000180025a90     kinect2.obj
 0002:00008ab0       ??_C@_0BC@KNBGIAJN@?4?4?2src?2kinect2?4cc?$AA@ 0000000180025ab0     kinect2.obj
 0002:00008ac8       ??_C@_07PNEFMPEK@kinect2?$AA@ 0000000180025ac8     kinect2.obj
 0002:00008ad0       ??_C@_0BI@CFPLBAOH@invalid?5string?5position?$AA@ 0000000180025ad0     kinect2.obj
 0002:00008ae8       __real@3b000000            0000000180025ae8     kinect2.obj
 0002:00008aec       __real@3c23d70a            0000000180025aec     kinect2.obj
 0002:00008af0       __real@3e75c28f            0000000180025af0     kinect2.obj
 0002:00008af4       __real@3f000000            0000000180025af4     kinect2.obj
 0002:00008af8       __real@3f800000            0000000180025af8     kinect2.obj
 0002:00008afc       __real@437f0000            0000000180025afc     kinect2.obj
 0002:00008b00       __real@43d40000            0000000180025b00     kinect2.obj
 0002:00008b04       __real@44870000            0000000180025b04     kinect2.obj
 0002:00008b08       __real@44f00000            0000000180025b08     kinect2.obj
 0002:00008b0c       __real@477fff00            0000000180025b0c     kinect2.obj
 0002:00008b10       __real@ff800000            0000000180025b10     kinect2.obj
 0002:00008b18       __real@3f73476a758da22a    0000000180025b18     libucrt:atanf.obj
 0002:00008b20       __real@3fc89e173a81ee7f    0000000180025b20     libucrt:atanf.obj
 0002:00008b28       __real@3fc90fdb            0000000180025b28     libucrt:atanf.obj
 0002:00008b30       __real@3fd2fa5316907834    0000000180025b30     libucrt:atanf.obj
 0002:00008b38       __real@3fd327e3df2cf2aa    0000000180025b38     libucrt:atanf.obj
 0002:00008b40       __real@3fddac670561bb4f    0000000180025b40     libucrt:atanf.obj
 0002:00008b48       __real@3fe921fb54442d18    0000000180025b48     libucrt:atanf.obj
 0002:00008b50       __real@3fec777ca21053f0    0000000180025b50     libucrt:atanf.obj
 0002:00008b58       __real@3fef730bd281f69b    0000000180025b58     libucrt:atanf.obj
 0002:00008b60       __real@3ff1c58793da6ea4    0000000180025b60     libucrt:atanf.obj
 0002:00008b68       __real@3ff8000000000000    0000000180025b68     libucrt:atanf.obj
 0002:00008b70       __real@3ff921fb54442d18    0000000180025b70     libucrt:atanf.obj
 0002:00008b78       __real@4000000000000000    0000000180025b78     libucrt:atanf.obj
 0002:00008b80       __real@43d3200000000000    0000000180025b80     libucrt:atanf.obj
 0002:00008b88       __real@bfc90fdb            0000000180025b88     libucrt:atanf.obj
 0002:00008b90       __real@bff0000000000000    0000000180025b90     libucrt:atanf.obj
 0002:00008cbc       __real@bf800000            0000000180025cbc     libucrt:floorf.obj
 0002:00008f60       ??_C@_04LAGPAAHP@sinf?$AA@ 0000000180025f60     libucrt:sincos_special.obj
 0002:00008f68       ??_C@_04OBBKPIAC@cosf?$AA@ 0000000180025f68     libucrt:sincos_special.obj
 0002:00008f70       __Lcosfarray               0000000180025f70     libucrt:lsincosf_array.obj
 0002:00008fa0       __Lsinfarray               0000000180025fa0     libucrt:lsincosf_array.obj
 0002:00008fc0       __L_2_by_pi_bits           0000000180025fc0     libucrt:l2_by_pi_bits.obj
 0002:00009170       _load_config_used          0000000180026170     LIBCMT:loadcfg.obj
 0002:00009208       ??_R4exception@std@@6B@    0000000180026208     libcpmt:xthrow.obj
 0002:00009230       ??_R3exception@std@@8      0000000180026230     libcpmt:xthrow.obj
 0002:00009248       ??_R2exception@std@@8      0000000180026248     libcpmt:xthrow.obj
 0002:00009258       ??_R1A@?0A@EA@exception@std@@8 0000000180026258     libcpmt:xthrow.obj
 0002:00009280       ??_R4bad_alloc@std@@6B@    0000000180026280     libcpmt:xthrow.obj
 0002:000092a8       ??_R3bad_alloc@std@@8      00000001800262a8     libcpmt:xthrow.obj
 0002:000092c0       ??_R2bad_alloc@std@@8      00000001800262c0     libcpmt:xthrow.obj
 0002:000092d8       ??_R1A@?0A@EA@bad_alloc@std@@8 00000001800262d8     libcpmt:xthrow.obj
 0002:00009300       ??_R4logic_error@std@@6B@  0000000180026300     libcpmt:xthrow.obj
 0002:00009328       ??_R3logic_error@std@@8    0000000180026328     libcpmt:xthrow.obj
 0002:00009340       ??_R2logic_error@std@@8    0000000180026340     libcpmt:xthrow.obj
 0002:00009358       ??_R1A@?0A@EA@logic_error@std@@8 0000000180026358     libcpmt:xthrow.obj
 0002:00009380       ??_R4length_error@std@@6B@ 0000000180026380     libcpmt:xthrow.obj
 0002:000093a8       ??_R3length_error@std@@8   00000001800263a8     libcpmt:xthrow.obj
 0002:000093c0       ??_R2length_error@std@@8   00000001800263c0     libcpmt:xthrow.obj
 0002:000093e0       ??_R1A@?0A@EA@length_error@std@@8 00000001800263e0     libcpmt:xthrow.obj
 0002:00009408       ??_R4out_of_range@std@@6B@ 0000000180026408     libcpmt:xthrow.obj
 0002:00009430       ??_R3out_of_range@std@@8   0000000180026430     libcpmt:xthrow.obj
 0002:00009448       ??_R2out_of_range@std@@8   0000000180026448     libcpmt:xthrow.obj
 0002:00009468       ??_R1A@?0A@EA@out_of_range@std@@8 0000000180026468     libcpmt:xthrow.obj
 0002:00009490       ??_R4type_info@@6B@        0000000180026490     LIBCMT:std_type_info_static.obj
 0002:000094b8       ??_R3type_info@@8          00000001800264b8     LIBCMT:std_type_info_static.obj
 0002:000094d0       ??_R2type_info@@8          00000001800264d0     LIBCMT:std_type_info_static.obj
 0002:000094e0       ??_R1A@?0A@EA@type_info@@8 00000001800264e0     LIBCMT:std_type_info_static.obj
 0002:00009508       ??_R4bad_array_new_length@std@@6B@ 0000000180026508     LIBCMT:throw_bad_alloc.obj
 0002:00009530       ??_R3bad_array_new_length@std@@8 0000000180026530     LIBCMT:throw_bad_alloc.obj
 0002:00009548       ??_R2bad_array_new_length@std@@8 0000000180026548     LIBCMT:throw_bad_alloc.obj
 0002:00009568       ??_R1A@?0A@EA@bad_array_new_length@std@@8 0000000180026568     LIBCMT:throw_bad_alloc.obj
 0002:00009590       ?_TraceLoggingMetadata@?1??_TlgWrite@__vcrt_trace_logging_provider@@YAJPEBU_TlgProvider_t@2@PEFBXPEBU_GUID@@2IPEAU_EVENT_DATA_DESCRIPTOR@@@Z@4U_TraceLoggingMetadata_t@2@B 0000000180026590     libvcruntime:telemetry.obj
 0002:00009643       ?_TraceLoggingMetadataEnd@?1??_TlgWrite@__vcrt_trace_logging_provider@@YAJPEBU_TlgProvider_t@2@PEFBXPEBU_GUID@@2IPEAU_EVENT_DATA_DESCRIPTOR@@@Z@4EB 0000000180026643     libvcruntime:telemetry.obj
 0002:00009a50       __rtc_iaa                  0000000180026a50     LIBCMT:_initsect_.obj
 0002:00009a58       __rtc_izz                  0000000180026a58     LIBCMT:_initsect_.obj
 0002:00009a60       __rtc_taa                  0000000180026a60     LIBCMT:_initsect_.obj
 0002:00009a68       __rtc_tzz                  0000000180026a68     LIBCMT:_initsect_.obj
 0002:0000ad08       _TI2?AVbad_alloc@std@@     0000000180027d08     libcpmt:xthrow.obj
 0002:0000ad28       _CTA2?AVbad_alloc@std@@    0000000180027d28     libcpmt:xthrow.obj
 0002:0000ad40       _CT??_R0?AVbad_alloc@std@@@8??0bad_alloc@std@@QEAA@AEBV01@@Z24 0000000180027d40     libcpmt:xthrow.obj
 0002:0000ad68       _CT??_R0?AVexception@std@@@8??0exception@std@@QEAA@AEBV01@@Z24 0000000180027d68     libcpmt:xthrow.obj
 0002:0000ad90       _CT??_R0?AVlogic_error@std@@@8??0logic_error@std@@QEAA@AEBV01@@Z24 0000000180027d90     libcpmt:xthrow.obj
 0002:0000adb8       _TI3?AVlength_error@std@@  0000000180027db8     libcpmt:xthrow.obj
 0002:0000add8       _CTA3?AVlength_error@std@@ 0000000180027dd8     libcpmt:xthrow.obj
 0002:0000adf8       _CT??_R0?AVlength_error@std@@@8??0length_error@std@@QEAA@AEBV01@@Z24 0000000180027df8     libcpmt:xthrow.obj
 0002:0000ae20       _TI3?AVout_of_range@std@@  0000000180027e20     libcpmt:xthrow.obj
 0002:0000ae40       _CTA3?AVout_of_range@std@@ 0000000180027e40     libcpmt:xthrow.obj
 0002:0000ae60       _CT??_R0?AVout_of_range@std@@@8??0out_of_range@std@@QEAA@AEBV01@@Z24 0000000180027e60     libcpmt:xthrow.obj
 0002:0000ae88       _TI3?AVbad_array_new_length@std@@ 0000000180027e88     LIBCMT:throw_bad_alloc.obj
 0002:0000aea8       _CTA3?AVbad_array_new_length@std@@ 0000000180027ea8     LIBCMT:throw_bad_alloc.obj
 0002:0000aec8       _CT??_R0?AVbad_array_new_length@std@@@8??0bad_array_new_length@std@@QEAA@AEBV01@@Z24 0000000180027ec8     LIBCMT:throw_bad_alloc.obj
 0002:0000af44       __IMPORT_DESCRIPTOR_KERNEL32 0000000180027f44     kernel32:KERNEL32.dll
 0002:0000af58       __IMPORT_DESCRIPTOR_node   0000000180027f58     iojs:node.dll
 0002:0000af6c       __IMPORT_DESCRIPTOR_Kinect20 0000000180027f6c     kinect20:Kinect20.dll
 0002:0000af80       __IMPORT_DESCRIPTOR_ADVAPI32 0000000180027f80     advapi32:ADVAPI32.dll
 0002:0000af94       __NULL_IMPORT_DESCRIPTOR   0000000180027f94     kernel32:KERNEL32.dll
 0003:00000000       __scrt_native_dllmain_reason 000000018002a000     LIBCMT:utility.obj
 0003:00000008       __security_cookie          000000018002a008     LIBCMT:gs_cookie.obj
 0003:00000010       __security_cookie_complement 000000018002a010     LIBCMT:gs_cookie.obj
 0003:00000018       __isa_available            000000018002a018     LIBCMT:_cpu_disp_.obj
 0003:0000001c       __isa_enabled              000000018002a01c     LIBCMT:_cpu_disp_.obj
 0003:00000020       __memcpy_nt_iters          000000018002a020     LIBCMT:_cpu_disp_.obj
 0003:00000090       __abort_behavior           000000018002a090     libucrt:abort.obj
 0003:000000a0       _iob                       000000018002a0a0     libucrt:_file.obj
 0003:000001b0       __acrt_initial_locale_data 000000018002a1b0     libucrt:nlsdata.obj
 0003:00000308       __acrt_initial_locale_pointers 000000018002a308     libucrt:nlsdata.obj
 0003:00000318       __acrt_wide_c_locale_string 000000018002a318     libucrt:nlsdata.obj
 0003:00000320       __acrt_initial_multibyte_data 000000018002a320     libucrt:mbctype.obj
 0003:00000548       __acrt_current_multibyte_data 000000018002a548     libucrt:mbctype.obj
 0003:00000650       _mbctype                   000000018002a650     libucrt:mbctype.obj
 0003:00000760       _mbcasemap                 000000018002a760     libucrt:mbctype.obj
 0003:00000860       __badioinfo                000000018002a860     libucrt:ioinit.obj
 0003:000008a0       _pwctype                   000000018002a8a0     libucrt:ctype.obj
 0003:000008a8       __globallocalestatus       000000018002a8a8     libucrt:glstatus.obj
 0003:000008b0       __acrt_lconv_c             000000018002a8b0     libucrt:localeconv.obj
 0003:00000948       __acrt_lconv_static_decimal 000000018002a948     libucrt:localeconv.obj
 0003:0000094c       __acrt_lconv_static_W_decimal 000000018002a94c     libucrt:localeconv.obj
 0003:00000950       __dcrt_lowio_console_output_handle 000000018002a950     libucrt:initcon.obj
 0003:00000970       _fltused                   000000018002a970     LIBCMT:fltused.obj
 0003:000009c0       ??_R0?AVbad_alloc@std@@@8  000000018002a9c0     libcpmt:xthrow.obj
 0003:000009e8       ??_R0?AVexception@std@@@8  000000018002a9e8     libcpmt:xthrow.obj
 0003:00000a10       ??_R0?AVlogic_error@std@@@8 000000018002aa10     libcpmt:xthrow.obj
 0003:00000a38       ??_R0?AVlength_error@std@@@8 000000018002aa38     libcpmt:xthrow.obj
 0003:00000a60       ??_R0?AVout_of_range@std@@@8 000000018002aa60     libcpmt:xthrow.obj
 0003:00000a88       ??_R0?AVtype_info@@@8      000000018002aa88     LIBCMT:std_type_info_static.obj
 0003:00000aa8       ??_R0?AVbad_array_new_length@std@@@8 000000018002aaa8     LIBCMT:throw_bad_alloc.obj
 0003:00001050       __scrt_current_native_startup_state 000000018002b050     LIBCMT:utility.obj
 0003:00001058       __scrt_native_startup_lock 000000018002b058     LIBCMT:utility.obj
 0003:00001098       __favor                    000000018002b098     LIBCMT:_cpu_disp_.obj
 0003:0000109c       __scrt_debugger_hook_flag  000000018002b09c     LIBCMT:utility_desktop.obj
 0003:000010a0       ?__type_info_root_node@@3U__type_info_node@@A 000000018002b0a0     LIBCMT:tncleanup.obj
 0003:000010b0       ?_OptionsStorage@?1??__local_stdio_printf_options@@9@4_KA 000000018002b0b0     LIBCMT:default_local_stdio_options.obj
 0003:000010b8       ?_OptionsStorage@?1??__local_stdio_scanf_options@@9@4_KA 000000018002b0b8     LIBCMT:default_local_stdio_options.obj
 0003:000011d8       __pPurecall                000000018002b1d8     libvcruntime:purevirt_data.obj
 0003:000011e0       ?pArgList@UnDecorator@@0PEAVReplicator@@EA 000000018002b1e0     libvcruntime:undname.obj
 0003:000011e8       ?pZNameList@UnDecorator@@0PEAVReplicator@@EA 000000018002b1e8     libvcruntime:undname.obj
 0003:000011f0       ?pTemplateArgList@UnDecorator@@0PEAVReplicator@@EA 000000018002b1f0     libvcruntime:undname.obj
 0003:000011f8       ?gName@UnDecorator@@0PEBDEB 000000018002b1f8     libvcruntime:undname.obj
 0003:00001200       ?name@UnDecorator@@0PEBDEB 000000018002b200     libvcruntime:undname.obj
 0003:00001208       ?outputString@UnDecorator@@0PEADEA 000000018002b208     libvcruntime:undname.obj
 0003:00001210       ?maxStringLength@UnDecorator@@0HA 000000018002b210     libvcruntime:undname.obj
 0003:00001214       ?disableFlags@UnDecorator@@0KA 000000018002b214     libvcruntime:undname.obj
 0003:00001218       ?fExplicitTemplateParams@UnDecorator@@0_NA 000000018002b218     libvcruntime:undname.obj
 0003:00001219       ?fGetTemplateArgumentList@UnDecorator@@0_NA 000000018002b219     libvcruntime:undname.obj
 0003:00001220       ?m_pGetParameter@UnDecorator@@0P6APEADJ@ZEA 000000018002b220     libvcruntime:undname.obj
 0003:00001388       _environ_table             000000018002b388     libucrt:environment_initialization.obj
 0003:00001390       _wenviron_table            000000018002b390     libucrt:environment_initialization.obj
 0003:00001398       __dcrt_initial_wide_environment 000000018002b398     libucrt:environment_initialization.obj
 0003:000013a0       __dcrt_initial_narrow_environment 000000018002b3a0     libucrt:environment_initialization.obj
 0003:000013a8       __acrt_atexit_table        000000018002b3a8     libucrt:onexit.obj
 0003:000013c0       __acrt_at_quick_exit_table 000000018002b3c0     libucrt:onexit.obj
 0003:000013e0       _nstream                   000000018002b3e0     libucrt:_file.obj
 0003:000013e8       __piob                     000000018002b3e8     libucrt:_file.obj
 0003:000013f0       _cflush                    000000018002b3f0     libucrt:_file.obj
 0003:00001418       __acrt_locale_changed_data 000000018002b418     libucrt:wsetlocale.obj
 0003:00001420       __acrt_current_locale_data 000000018002b420     libucrt:nlsdata.obj
 0003:000017e4       __mbcodepage               000000018002b7e4     libucrt:mbctype.obj
 0003:000017e8       __ismbcodepage             000000018002b7e8     libucrt:mbctype.obj
 0003:000017f0       __mbulinfo                 000000018002b7f0     libucrt:mbctype.obj
 0003:00001800       __mblocalename             000000018002b800     libucrt:mbctype.obj
 0003:0000180c       __argc                     000000018002b80c     libucrt:argv_data.obj
 0003:00001810       __argv                     000000018002b810     libucrt:argv_data.obj
 0003:00001818       __wargv                    000000018002b818     libucrt:argv_data.obj
 0003:00001820       _acmdln                    000000018002b820     libucrt:argv_data.obj
 0003:00001828       _wcmdln                    000000018002b828     libucrt:argv_data.obj
 0003:00001830       _pgmptr                    000000018002b830     libucrt:argv_data.obj
 0003:00001838       __acrt_heap                000000018002b838     libucrt:heap_handle.obj
 0003:00001840       __pioinfo                  000000018002b840     libucrt:ioinit.obj
 0003:00001c40       _nhandle                   000000018002bc40     libucrt:ioinit.obj
 0003:00001c50       __acrt_stdout_buffer       000000018002bc50     libucrt:_sftbuf.obj
 0003:00001c58       __acrt_stderr_buffer       000000018002bc58     libucrt:_sftbuf.obj
 0003:00001c70       __acrt_lconv_static_null   000000018002bc70     libucrt:localeconv.obj
 0003:00001c74       __acrt_lconv_static_W_null 000000018002bc74     libucrt:localeconv.obj
 0003:00001c78       __fma3_is_available        000000018002bc78     libucrt:fma3_available.obj
 0003:00001c7c       __use_fma3_lib             000000018002bc7c     libucrt:fma3_available.obj
 0003:00001c80       ?m_bRawDepthThreadRunning@@3_NA 000000018002bc80     kinect2.obj
 0003:00001c81       ?m_bColorThreadRunning@@3_NA 000000018002bc81     kinect2.obj
 0003:00001c82       ?m_bInfraredThreadRunning@@3_NA 000000018002bc82     kinect2.obj
 0003:00001c83       ?m_bMultiSourceThreadRunning@@3_NA 000000018002bc83     kinect2.obj
 0003:00001c84       ?m_fDepthDiagonalFieldOfView@@3MA 000000018002bc84     kinect2.obj
 0003:00001c88       ?m_pInfraredReaderCallback@@3PEAVCallback@Nan@@EA 000000018002bc88     kinect2.obj
 0003:00001c90       ?m_mColorReaderMutex@@3U_RTL_CRITICAL_SECTION@@A 000000018002bc90     kinect2.obj
 0003:00001cb8       ?m_pDepthReaderCallback@@3PEAVCallback@Nan@@EA 000000018002bcb8     kinect2.obj
 0003:00001cc0       ?m_tDepthThread@@3PEAXEA   000000018002bcc0     kinect2.obj
 0003:00001cc8       ?m_pRawDepthReaderCallback@@3PEAVCallback@Nan@@EA 000000018002bcc8     kinect2.obj
 0003:00001cd0       ?m_aMultiSourceAsync@@3Uuv_async_s@@A 000000018002bcd0     kinect2.obj
 0003:00001db0       ?m_enabledFrameSourceTypes@@3KA 000000018002bdb0     kinect2.obj
 0003:00001db4       ?m_trackPixelsForBodyIndexV8@@3PA_NA 000000018002bdb4     kinect2.obj
 0003:00001dba       ?m_bBodyThreadRunning@@3_NA 000000018002bdba     kinect2.obj
 0003:00001dbb       ?m_includeJointFloorData@@3_NA 000000018002bdbb     kinect2.obj
 0003:00001dbc       ?m_fColorVerticalFieldOfView@@3MA 000000018002bdbc     kinect2.obj
 0003:00001dc0       ?m_aBodyAsync@@3Uuv_async_s@@A 000000018002bdc0     kinect2.obj
 0003:00001ea0       ?m_mLongExposureInfraredReaderMutex@@3U_RTL_CRITICAL_SECTION@@A 000000018002bea0     kinect2.obj
 0003:00001ec8       ?m_mBodyReaderMutex@@3U_RTL_CRITICAL_SECTION@@A 000000018002bec8     kinect2.obj
 0003:00001ef0       ?m_pBodyIndexColorPixelsV8@@3PAY0BPKEAA@UtagRGBQUAD@@A 000000018002bef0     kinect2.obj
 0003:02f77ef0       ?m_pInfraredFrameReader@@3PEAUIInfraredFrameReader@@EA 0000000182fa1ef0     kinect2.obj
 0003:02f77ef8       ?m_pCoordinateMapper@@3PEAUICoordinateMapper@@EA 0000000182fa1ef8     kinect2.obj
 0003:02f77f00       ?m_pLongExposureInfraredFrameReader@@3PEAUILongExposureInfraredFrameReader@@EA 0000000182fa1f00     kinect2.obj
 0003:02f77f08       ?m_pBodyFrameReader@@3PEAUIBodyFrameReader@@EA 0000000182fa1f08     kinect2.obj
 0003:02f77f10       ?m_jsBodyFrameV8@@3U_JSBodyFrame@@A 0000000182fa1f10     kinect2.obj
 0003:02f7aea0       ?m_fDepthHorizontalFieldOfViewV8@@3MA 0000000182fa4ea0     kinect2.obj
 0003:02f7aea4       ?m_fColorVerticalFieldOfViewV8@@3MA 0000000182fa4ea4     kinect2.obj
 0003:02f7aea8       ?m_tBodyThread@@3PEAXEA    0000000182fa4ea8     kinect2.obj
 0003:02f7aeb0       ?m_aInfraredAsync@@3Uuv_async_s@@A 0000000182fa4eb0     kinect2.obj
 0003:02f7af90       ?m_fColorHorizontalFieldOfViewV8@@3MA 0000000182fa4f90     kinect2.obj
 0003:02f7af94       ?m_fDepthDiagonalFieldOfViewV8@@3MA 0000000182fa4f94     kinect2.obj
 0003:02f7af98       ?m_mInfraredReaderMutex@@3U_RTL_CRITICAL_SECTION@@A 0000000182fa4f98     kinect2.obj
 0003:02f7afc0       ?m_aLongExposureInfraredAsync@@3Uuv_async_s@@A 0000000182fa4fc0     kinect2.obj
 0003:02f7b0a0       ?m_pLongExposureInfraredReaderCallback@@3PEAVCallback@Nan@@EA 0000000182fa50a0     kinect2.obj
 0003:02f7b0a8       ?m_fLongExposureInfraredVerticalFieldOfView@@3MA 0000000182fa50a8     kinect2.obj
 0003:02f7b0ac       ?m_enabledFrameTypes@@3KA  0000000182fa50ac     kinect2.obj
 0003:02f7b0b0       ?m_jsBodyFrame@@3U_JSBodyFrame@@A 0000000182fa50b0     kinect2.obj
 0003:02f7e040       ?m_mDepthReaderMutex@@3U_RTL_CRITICAL_SECTION@@A 0000000182fa8040     kinect2.obj
 0003:02f7e068       ?m_pBodyReaderCallback@@3PEAVCallback@Nan@@EA 0000000182fa8068     kinect2.obj
 0003:02f7e070       ?m_aDepthAsync@@3Uuv_async_s@@A 0000000182fa8070     kinect2.obj
 0003:02f7e150       ?m_pDepthFrameReader@@3PEAUIDepthFrameReader@@EA 0000000182fa8150     kinect2.obj
 0003:02f7e158       ?m_pMultiSourceReaderCallback@@3PEAVCallback@Nan@@EA 0000000182fa8158     kinect2.obj
 0003:02f7e160       ?m_fColorDiagonalFieldOfViewV8@@3MA 0000000182fa8160     kinect2.obj
 0003:02f7e164       ?m_fInfraredHorizontalFieldOfView@@3MA 0000000182fa8164     kinect2.obj
 0003:02f7e168       ?m_tRawDepthThread@@3PEAXEA 0000000182fa8168     kinect2.obj
 0003:02f7e170       ?m_fDepthHorizontalFieldOfView@@3MA 0000000182fa8170     kinect2.obj
 0003:02f7e174       ?m_bLongExposureInfraredThreadRunning@@3_NA 0000000182fa8174     kinect2.obj
 0003:02f7e175       ?m_bDepthThreadRunning@@3_NA 0000000182fa8175     kinect2.obj
 0003:02f7e178       ?m_pMultiSourceFrameReader@@3PEAUIMultiSourceFrameReader@@EA 0000000182fa8178     kinect2.obj
 0003:02f7e180       ?m_pBodyIndexColorPixels@@3PAY0BPKEAA@UtagRGBQUAD@@A 0000000182fa8180     kinect2.obj
 0003:05ef4180       ?m_pColorFrameReader@@3PEAUIColorFrameReader@@EA 0000000185f1e180     kinect2.obj
 0003:05ef4188       ?m_fColorDiagonalFieldOfView@@3MA 0000000185f1e188     kinect2.obj
 0003:05ef418c       ?m_fDepthVerticalFieldOfViewV8@@3MA 0000000185f1e18c     kinect2.obj
 0003:05ef4190       ?m_fDepthVerticalFieldOfView@@3MA 0000000185f1e190     kinect2.obj
 0003:05ef4194       ?m_fInfraredDiagonalFieldOfView@@3MA 0000000185f1e194     kinect2.obj
 0003:05ef4198       ?m_tColorThread@@3PEAXEA   0000000185f1e198     kinect2.obj
 0003:05ef41a0       ?m_aColorAsync@@3Uuv_async_s@@A 0000000185f1e1a0     kinect2.obj
 0003:05ef4280       ?m_pColorReaderCallback@@3PEAVCallback@Nan@@EA 0000000185f1e280     kinect2.obj
 0003:05ef4288       ?m_tMultiSourceThread@@3PEAXEA 0000000185f1e288     kinect2.obj
 0003:05ef4290       ?m_tInfraredThread@@3PEAXEA 0000000185f1e290     kinect2.obj
 0003:05ef4298       ?m_mMultiSourceReaderMutex@@3U_RTL_CRITICAL_SECTION@@A 0000000185f1e298     kinect2.obj
 0003:05ef42c0       ?m_aRawDepthAsync@@3Uuv_async_s@@A 0000000185f1e2c0     kinect2.obj
 0003:05ef43a0       ?m_fLongExposureInfraredHorizontalFieldOfView@@3MA 0000000185f1e3a0     kinect2.obj
 0003:05ef43a4       ?m_fInfraredVerticalFieldOfView@@3MA 0000000185f1e3a4     kinect2.obj
 0003:05ef43a8       ?m_mRawDepthReaderMutex@@3U_RTL_CRITICAL_SECTION@@A 0000000185f1e3a8     kinect2.obj
 0003:05ef43d0       ?m_pKinectSensor@@3PEAUIKinectSensor@@EA 0000000185f1e3d0     kinect2.obj
 0003:05ef43d8       ?m_fColorHorizontalFieldOfView@@3MA 0000000185f1e3d8     kinect2.obj
 0003:05ef43dc       ?m_fLongExposureInfraredDiagonalFieldOfView@@3MA 0000000185f1e3dc     kinect2.obj
 0003:05ef43e0       ?m_tLongExposureInfraredThread@@3PEAXEA 0000000185f1e3e0     kinect2.obj
 0003:05ef43e8       ?m_pLongExposureInfraredPixelsV8@@3PEADEA 0000000185f1e3e8     kinect2.obj
 0003:05ef43f0       ?m_pColorCoordinatesForDepth@@3PEAU_ColorSpacePoint@@EA 0000000185f1e3f0     kinect2.obj
 0003:05ef43f8       ?m_pInfraredPixelsV8@@3PEADEA 0000000185f1e3f8     kinect2.obj
 0003:05ef4400       ?m_pDepthColorPixels@@3PEAUtagRGBQUAD@@EA 0000000185f1e400     kinect2.obj
 0003:05ef4408       ?m_persistentColorPixels@@3V?$Persistent@VObject@v8@@V?$NonCopyablePersistentTraits@VObject@v8@@@2@@Nan@@A 0000000185f1e408     kinect2.obj
 0003:05ef4410       ?m_pRawDepthValues@@3PEAGEA 0000000185f1e410     kinect2.obj
 0003:05ef4418       ?m_pDepthCoordinatesForColor@@3PEAU_DepthSpacePoint@@EA 0000000185f1e418     kinect2.obj
 0003:05ef4420       ?m_pColorPixels@@3PEAUtagRGBQUAD@@EA 0000000185f1e420     kinect2.obj
 0003:05ef4428       ?m_persistentDepthColorPixels@@3V?$Persistent@VObject@v8@@V?$NonCopyablePersistentTraits@VObject@v8@@@2@@Nan@@A 0000000185f1e428     kinect2.obj
 0003:05ef4430       ?m_pColorPixelsV8@@3PEAUtagRGBQUAD@@EA 0000000185f1e430     kinect2.obj
 0003:05ef4438       ?m_pLongExposureInfraredPixels@@3PEADEA 0000000185f1e438     kinect2.obj
 0003:05ef4440       ?m_pDepthColorPixelsV8@@3PEAUtagRGBQUAD@@EA 0000000185f1e440     kinect2.obj
 0003:05ef4448       ?m_persistentBodyIndexColorPixels@@3V?$Persistent@VObject@v8@@V?$NonCopyablePersistentTraits@VObject@v8@@@2@@Nan@@A 0000000185f1e448     kinect2.obj
 0003:05ef4450       ?m_pDepthPixelsV8@@3PEADEA 0000000185f1e450     kinect2.obj
 0003:05ef4458       ?m_pDepthPixels@@3PEADEA   0000000185f1e458     kinect2.obj
 0003:05ef4460       ?m_pInfraredPixels@@3PEADEA 0000000185f1e460     kinect2.obj
 0003:05ef4468       ?m_persistentLongExposureInfraredPixels@@3V?$Persistent@VObject@v8@@V?$NonCopyablePersistentTraits@VObject@v8@@@2@@Nan@@A 0000000185f1e468     kinect2.obj
 0003:05ef4470       ?m_persistentInfraredPixels@@3V?$Persistent@VObject@v8@@V?$NonCopyablePersistentTraits@VObject@v8@@@2@@Nan@@A 0000000185f1e470     kinect2.obj
 0003:05ef4478       ?m_pRawDepthValuesV8@@3PEAGEA 0000000185f1e478     kinect2.obj
 0003:05ef4480       ?m_persistentRawDepthValues@@3V?$Persistent@VObject@v8@@V?$NonCopyablePersistentTraits@VObject@v8@@@2@@Nan@@A 0000000185f1e480     kinect2.obj
 0003:05ef4488       ?m_persistentDepthPixels@@3V?$Persistent@VObject@v8@@V?$NonCopyablePersistentTraits@VObject@v8@@@2@@Nan@@A 0000000185f1e488     kinect2.obj
 0003:05ef4490       __dyn_tls_init_callback    0000000185f1e490     <common>
 0003:05ef4498       __scrt_ucrt_dll_is_in_use  0000000185f1e498     <common>
 0003:05ef44a0       _pDestructExceptionObject  0000000185f1e4a0     <common>

 entry point at        0001:00008fa0

 Static symbols

 0000:fa0da000       .debug$S                   0000000180000000     kernel32:KERNEL32.dll
 0000:fa0da000       .debug$S                   0000000180000000     kernel32:KERNEL32.dll
 0000:fa0da000       .debug$S                   0000000180000000     kernel32:KERNEL32.dll
 0000:fa0da000       .debug$S                   0000000180000000     kernel32:KERNEL32.dll
 0000:fa0da000       .debug$S                   0000000180000000     kernel32:KERNEL32.dll
 0000:fa0da000       .debug$S                   0000000180000000     kernel32:KERNEL32.dll
 0000:fa0da000       .debug$S                   0000000180000000     kernel32:KERNEL32.dll
 0000:fa0da000       .debug$S                   0000000180000000     kernel32:KERNEL32.dll
 0000:fa0da000       .debug$S                   0000000180000000     kernel32:KERNEL32.dll
 0000:fa0da000       .debug$S                   0000000180000000     kernel32:KERNEL32.dll
 0000:fa0da000       .debug$S                   0000000180000000     kernel32:KERNEL32.dll
 0000:fa0da000       .debug$S                   0000000180000000     kernel32:KERNEL32.dll
 0000:fa0da000       .debug$S                   0000000180000000     kernel32:KERNEL32.dll
 0000:fa0da000       .debug$S                   0000000180000000     kernel32:KERNEL32.dll
 0000:fa0da000       .debug$S                   0000000180000000     kernel32:KERNEL32.dll
 0000:fa0da000       .debug$S                   0000000180000000     kernel32:KERNEL32.dll
 0000:fa0da000       .debug$S                   0000000180000000     kernel32:KERNEL32.dll
 0000:fa0da000       .debug$S                   0000000180000000     kernel32:KERNEL32.dll
 0000:fa0da000       .debug$S                   0000000180000000     kernel32:KERNEL32.dll
 0000:fa0da000       .debug$S                   0000000180000000     kernel32:KERNEL32.dll
 0000:fa0da000       .debug$S                   0000000180000000     kernel32:KERNEL32.dll
 0000:fa0da000       .debug$S                   0000000180000000     kernel32:KERNEL32.dll
 0000:fa0da000       .debug$S                   0000000180000000     kernel32:KERNEL32.dll
 0000:fa0da000       .debug$S                   0000000180000000     kernel32:KERNEL32.dll
 0000:fa0da000       .debug$S                   0000000180000000     kernel32:KERNEL32.dll
 0000:fa0da000       .debug$S                   0000000180000000     kernel32:KERNEL32.dll
 0000:fa0da000       .debug$S                   0000000180000000     kernel32:KERNEL32.dll
 0000:fa0da000       .debug$S                   0000000180000000     kernel32:KERNEL32.dll
 0000:fa0da000       .debug$S                   0000000180000000     kernel32:KERNEL32.dll
 0000:fa0da000       .debug$S                   0000000180000000     kernel32:KERNEL32.dll
 0000:fa0da000       .debug$S                   0000000180000000     kernel32:KERNEL32.dll
 0000:fa0da000       .debug$S                   0000000180000000     kernel32:KERNEL32.dll
 0000:fa0da000       .debug$S                   0000000180000000     kernel32:KERNEL32.dll
 0000:fa0da000       .debug$S                   0000000180000000     kernel32:KERNEL32.dll
 0000:fa0da000       .debug$S                   0000000180000000     kernel32:KERNEL32.dll
 0000:fa0da000       .debug$S                   0000000180000000     kernel32:KERNEL32.dll
 0000:fa0da000       .debug$S                   0000000180000000     kernel32:KERNEL32.dll
 0000:fa0da000       .debug$S                   0000000180000000     kernel32:KERNEL32.dll
 0000:fa0da000       .debug$S                   0000000180000000     kinect2.exp
 0000:fa0da000       .debug$S                   0000000180000000     kernel32:KERNEL32.dll
 0000:fa0da000       .debug$S                   0000000180000000     kernel32:KERNEL32.dll
 0000:fa0da000       .debug$S                   0000000180000000     kernel32:KERNEL32.dll
 0000:fa0da000       .debug$S                   0000000180000000     kernel32:KERNEL32.dll
 0000:fa0da000       .debug$S                   0000000180000000     kernel32:KERNEL32.dll
 0000:fa0da000       .debug$S                   0000000180000000     kernel32:KERNEL32.dll
 0000:fa0da000       .debug$S                   0000000180000000     kernel32:KERNEL32.dll
 0000:fa0da000       .debug$S                   0000000180000000     kernel32:KERNEL32.dll
 0000:fa0da000       .debug$S                   0000000180000000     kernel32:KERNEL32.dll
 0000:fa0da000       .debug$S                   0000000180000000     kernel32:KERNEL32.dll
 0000:fa0da000       .debug$S                   0000000180000000     kernel32:KERNEL32.dll
 0000:fa0da000       .debug$S                   0000000180000000     kernel32:KERNEL32.dll
 0000:fa0da000       .debug$S                   0000000180000000     kernel32:KERNEL32.dll
 0000:fa0da000       .debug$S                   0000000180000000     kernel32:KERNEL32.dll
 0000:fa0da000       .debug$S                   0000000180000000     kernel32:KERNEL32.dll
 0000:fa0da000       .debug$S                   0000000180000000     kernel32:KERNEL32.dll
 0000:fa0da000       .debug$S                   0000000180000000     kernel32:KERNEL32.dll
 0000:fa0da000       .debug$S                   0000000180000000     kernel32:KERNEL32.dll
 0000:fa0da000       .debug$S                   0000000180000000     kernel32:KERNEL32.dll
 0000:fa0da000       .debug$S                   0000000180000000     kernel32:KERNEL32.dll
 0000:fa0da000       .debug$S                   0000000180000000     kernel32:KERNEL32.dll
 0000:fa0da000       .debug$S                   0000000180000000     kernel32:KERNEL32.dll
 0000:fa0da000       .debug$S                   0000000180000000     kernel32:KERNEL32.dll
 0000:fa0da000       .debug$S                   0000000180000000     kernel32:KERNEL32.dll
 0000:fa0da000       .debug$S                   0000000180000000     kernel32:KERNEL32.dll
 0000:fa0da000       .debug$S                   0000000180000000     kernel32:KERNEL32.dll
 0000:fa0da000       .debug$S                   0000000180000000     advapi32:ADVAPI32.dll
 0000:fa0da000       .debug$S                   0000000180000000     iojs:node.dll
 0000:fa0da000       .debug$S                   0000000180000000     iojs:node.dll
 0000:fa0da000       .debug$S                   0000000180000000     iojs:node.dll
 0000:fa0da000       .debug$S                   0000000180000000     iojs:node.dll
 0000:fa0da000       .debug$S                   0000000180000000     iojs:node.dll
 0000:fa0da000       .debug$S                   0000000180000000     iojs:node.dll
 0000:fa0da000       .debug$S                   0000000180000000     iojs:node.dll
 0000:fa0da000       .debug$S                   0000000180000000     iojs:node.dll
 0000:fa0da000       .debug$S                   0000000180000000     iojs:node.dll
 0000:fa0da000       .debug$S                   0000000180000000     kernel32:KERNEL32.dll
 0000:fa0da000       .debug$S                   0000000180000000     kernel32:KERNEL32.dll
 0000:fa0da000       .debug$S                   0000000180000000     kernel32:KERNEL32.dll
 0000:fa0da000       .debug$S                   0000000180000000     kernel32:KERNEL32.dll
 0000:fa0da000       .debug$S                   0000000180000000     iojs:node.dll
 0000:fa0da000       .debug$S                   0000000180000000     iojs:node.dll
 0000:fa0da000       .debug$S                   0000000180000000     iojs:node.dll
 0000:fa0da000       .debug$S                   0000000180000000     iojs:node.dll
 0000:fa0da000       .debug$S                   0000000180000000     iojs:node.dll
 0000:fa0da000       .debug$S                   0000000180000000     iojs:node.dll
 0000:fa0da000       .debug$S                   0000000180000000     iojs:node.dll
 0000:fa0da000       .debug$S                   0000000180000000     iojs:node.dll
 0000:fa0da000       .debug$S                   0000000180000000     kernel32:KERNEL32.dll
 0000:fa0da000       .debug$S                   0000000180000000     kernel32:KERNEL32.dll
 0000:fa0da000       .debug$S                   0000000180000000     iojs:node.dll
 0000:fa0da000       .debug$S                   0000000180000000     iojs:node.dll
 0000:fa0da000       .debug$S                   0000000180000000     iojs:node.dll
 0000:fa0da000       .debug$S                   0000000180000000     iojs:node.dll
 0000:fa0da000       .debug$S                   0000000180000000     iojs:node.dll
 0000:fa0da000       .debug$S                   0000000180000000     iojs:node.dll
 0000:fa0da000       .debug$S                   0000000180000000     iojs:node.dll
 0000:fa0da000       .debug$S                   0000000180000000     iojs:node.dll
 0000:fa0da000       .debug$S                   0000000180000000     iojs:node.dll
 0000:fa0da000       .debug$S                   0000000180000000     iojs:node.dll
 0000:fa0da000       .debug$S                   0000000180000000     iojs:node.dll
 0000:fa0da000       .debug$S                   0000000180000000     iojs:node.dll
 0000:fa0da000       .debug$S                   0000000180000000     kinect20:Kinect20.dll
 0000:fa0da000       .debug$S                   0000000180000000     iojs:node.dll
 0000:fa0da000       .debug$S                   0000000180000000     iojs:node.dll
 0000:fa0da000       .debug$S                   0000000180000000     kernel32:KERNEL32.dll
 0000:fa0da000       .debug$S                   0000000180000000     kernel32:KERNEL32.dll
 0000:fa0da000       .debug$S                   0000000180000000     kernel32:KERNEL32.dll
 0000:fa0da000       .debug$S                   0000000180000000     kernel32:KERNEL32.dll
 0000:fa0da000       .debug$S                   0000000180000000     kernel32:KERNEL32.dll
 0000:fa0da000       .debug$S                   0000000180000000     iojs:node.dll
 0000:fa0da000       .debug$S                   0000000180000000     iojs:node.dll
 0000:fa0da000       .debug$S                   0000000180000000     kernel32:KERNEL32.dll
 0000:fa0da000       .debug$S                   0000000180000000     iojs:node.dll
 0000:fa0da000       .debug$S                   0000000180000000     iojs:node.dll
 0000:fa0da000       .debug$S                   0000000180000000     kernel32:KERNEL32.dll
 0000:fa0da000       .debug$S                   0000000180000000     kernel32:KERNEL32.dll
 0000:fa0da000       .debug$S                   0000000180000000     iojs:node.dll
 0000:fa0da000       .debug$S                   0000000180000000     iojs:node.dll
 0000:fa0da000       .debug$S                   0000000180000000     iojs:node.dll
 0000:fa0da000       .debug$S                   0000000180000000     iojs:node.dll
 0000:fa0da000       .debug$S                   0000000180000000     kernel32:KERNEL32.dll
 0000:fa0da000       .debug$S                   0000000180000000     kernel32:KERNEL32.dll
 0000:fa0da000       .debug$S                   0000000180000000     iojs:node.dll
 0000:fa0da000       .debug$S                   0000000180000000     iojs:node.dll
 0000:fa0da000       .debug$S                   0000000180000000     iojs:node.dll
 0000:fa0da000       .debug$S                   0000000180000000     iojs:node.dll
 0000:fa0da000       .debug$S                   0000000180000000     iojs:node.dll
 0000:fa0da000       .debug$S                   0000000180000000     iojs:node.dll
 0000:fa0da000       .debug$S                   0000000180000000     iojs:node.dll
 0000:fa0da000       .debug$S                   0000000180000000     iojs:node.dll
 0000:fa0da000       .debug$S                   0000000180000000     kernel32:KERNEL32.dll
 0000:fa0da000       .debug$S                   0000000180000000     kernel32:KERNEL32.dll
 0000:fa0da000       .debug$S                   0000000180000000     iojs:node.dll
 0000:fa0da000       .debug$S                   0000000180000000     iojs:node.dll
 0000:fa0da000       .debug$S                   0000000180000000     iojs:node.dll
 0000:fa0da000       .debug$S                   0000000180000000     iojs:node.dll
 0000:fa0da000       .debug$S                   0000000180000000     iojs:node.dll
 0000:fa0da000       .debug$S                   0000000180000000     iojs:node.dll
 0000:fa0da000       .debug$S                   0000000180000000     iojs:node.dll
 0000:fa0da000       .debug$S                   0000000180000000     iojs:node.dll
 0000:fa0da000       .debug$S                   0000000180000000     kernel32:KERNEL32.dll
 0000:fa0da000       .debug$S                   0000000180000000     kernel32:KERNEL32.dll
 0000:fa0da000       .debug$S                   0000000180000000     kernel32:KERNEL32.dll
 0000:fa0da000       .debug$S                   0000000180000000     kernel32:KERNEL32.dll
 0000:fa0da000       .debug$S                   0000000180000000     kernel32:KERNEL32.dll
 0001:000001e0       ??__Em_pColorPixels@@YAXXZ 00000001800011e0 f   kinect2.obj
 0001:00000200       ??__Em_pColorPixelsV8@@YAXXZ 0000000180001200 f   kinect2.obj
 0001:00000220       ??__Em_pInfraredPixels@@YAXXZ 0000000180001220 f   kinect2.obj
 0001:00000240       ??__Em_pInfraredPixelsV8@@YAXXZ 0000000180001240 f   kinect2.obj
 0001:00000260       ??__Em_pLongExposureInfraredPixels@@YAXXZ 0000000180001260 f   kinect2.obj
 0001:00000280       ??__Em_pLongExposureInfraredPixelsV8@@YAXXZ 0000000180001280 f   kinect2.obj
 0001:000002a0       ??__Em_pDepthPixels@@YAXXZ 00000001800012a0 f   kinect2.obj
 0001:000002c0       ??__Em_pDepthPixelsV8@@YAXXZ 00000001800012c0 f   kinect2.obj
 0001:000002e0       ??__Em_pRawDepthValues@@YAXXZ 00000001800012e0 f   kinect2.obj
 0001:00000300       ??__Em_pRawDepthValuesV8@@YAXXZ 0000000180001300 f   kinect2.obj
 0001:00000320       ??__Em_pDepthColorPixels@@YAXXZ 0000000180001320 f   kinect2.obj
 0001:00000340       ??__Em_pDepthColorPixelsV8@@YAXXZ 0000000180001340 f   kinect2.obj
 0001:00000360       ??__Em_pDepthCoordinatesForColor@@YAXXZ 0000000180001360 f   kinect2.obj
 0001:00000380       ??__Em_pColorCoordinatesForDepth@@YAXXZ 0000000180001380 f   kinect2.obj
 0001:000003a0       ??__Em_persistentColorPixels@@YAXXZ 00000001800013a0 f   kinect2.obj
 0001:000003c0       ??__Em_persistentInfraredPixels@@YAXXZ 00000001800013c0 f   kinect2.obj
 0001:000003e0       ??__Em_persistentLongExposureInfraredPixels@@YAXXZ 00000001800013e0 f   kinect2.obj
 0001:00000400       ??__Em_persistentDepthPixels@@YAXXZ 0000000180001400 f   kinect2.obj
 0001:00000420       ??__Em_persistentRawDepthValues@@YAXXZ 0000000180001420 f   kinect2.obj
 0001:00000440       ??__Em_persistentDepthColorPixels@@YAXXZ 0000000180001440 f   kinect2.obj
 0001:00000460       ??__Em_persistentBodyIndexColorPixels@@YAXXZ 0000000180001460 f   kinect2.obj
 0001:00000480       ?FunctionCallbackWrapper@imp@Nan@@YAXAEBV?$FunctionCallbackInfo@VValue@v8@@@v8@@@Z 0000000180001480 f   kinect2.obj
 0001:00007d10       _register_kinect2          0000000180008d10 f   kinect2.obj
 0001:00008530       $$000000                   0000000180009530     LIBCMT:_amdsecgs_.obj
 0001:0000871c       capture_current_context    000000018000971c f   LIBCMT:gs_report.obj
 0001:0000878c       capture_previous_context   000000018000978c f   LIBCMT:gs_report.obj
 0001:00008c30       ?dllmain_crt_dispatch@@YAHQEAUHINSTANCE__@@KQEAX@Z 0000000180009c30 f   LIBCMT:dll_dllmain.obj
 0001:00008c80       ?dllmain_crt_process_attach@@YAHQEAUHINSTANCE__@@QEAX@Z 0000000180009c80 f   LIBCMT:dll_dllmain.obj
 0001:00008dac       ?dllmain_crt_process_detach@@YAH_N@Z 0000000180009dac f   LIBCMT:dll_dllmain.obj
 0001:00008e30       ?dllmain_dispatch@@YAHQEAUHINSTANCE__@@KQEAX@Z 0000000180009e30 f   LIBCMT:dll_dllmain.obj
 0001:00008f4c       ?dllmain_raw@@YAHQEAUHINSTANCE__@@KQEAX@Z 0000000180009f4c f   LIBCMT:dll_dllmain.obj
 0001:00009560       $$000000                   000000018000a560     libvcruntime:memcpy.obj
 0001:00009607       MoveSmall                  000000018000a607     libvcruntime:memcpy.obj
 0001:00009dd0       _TlgDefineProvider_annotation__Tlg_Microsoft_CRTProviderProv 000000018000add0 f   libvcruntime:telemetry.obj
 0001:0000a040       $$000000                   000000018000b040     libvcruntime:memset.obj
 0001:0000a12c       MsetTab                    000000018000b12c     libvcruntime:memset.obj
 0001:0000a428       ?try_get_function@@YAPEAXW4function_id@?A0x49c8dc86@@QEBDQEBW4module_id@2@2@Z 000000018000b428 f   libvcruntime:winapi_downlevel.obj
 0001:0000aa60       $$000000                   000000018000ba60     libvcruntime:_jmpuwind_.obj
 0001:0000aad4       ??$common_assert_to_message_box@_W@@YAXQEB_W0IQEAX@Z 000000018000bad4 f   libucrt:assert.obj
 0001:0000ab98       ??$common_assert_to_message_box_build_string@_W@@YAXQEA_W_KQEB_W2IQEAX@Z 000000018000bb98 f   libucrt:assert.obj
 0001:0000b36c       ??$common_assert_to_stderr@_W@@YAXQEB_W0I@Z 000000018000c36c f   libucrt:assert.obj
 0001:0000b4dc       ?get_assert_format@@YAPEB_W_W@Z 000000018000c4dc f   libucrt:assert.obj
 0001:0000bb5c       ?atexit_exception_filter@@YAHK@Z 000000018000cb5c f   libucrt:exit.obj
 0001:0000bb68       ?common_exit@@YAXHW4_crt_exit_cleanup_mode@@W4_crt_exit_return_mode@@@Z 000000018000cb68 f   libucrt:exit.obj
 0001:0000bcd4       ?exit_or_terminate_process@@YAXI@Z 000000018000ccd4 f   libucrt:exit.obj
 0001:0000bd20       ?try_cor_exit_process@@YAXI@Z 000000018000cd20 f   libucrt:exit.obj
 0001:0000bdb8       ??$parse_command_line@D@@YAXPEADPEAPEAD0PEA_K2@Z 000000018000cdb8 f   libucrt:argv_parsing.obj
 0001:0000c150       ??$common_initialize_environment_nolock@D@@YAHXZ 000000018000d150 f   libucrt:environment_initialization.obj
 0001:0000c1bc       ??$create_environment@D@@YAQEAPEADQEAD@Z 000000018000d1bc f   libucrt:environment_initialization.obj
 0001:0000c2b8       ??$free_environment@D@@YAXQEAPEAD@Z 000000018000d2b8 f   libucrt:environment_initialization.obj
 0001:0000c2b8       ??$free_environment@_W@@YAXQEAPEA_W@Z 000000018000d2b8 f   libucrt:environment_initialization.obj
 0001:0000c2fc       ??$uninitialize_environment_internal@D@@YAXAEAPEAPEAD@Z 000000018000d2fc f   libucrt:environment_initialization.obj
 0001:0000c318       ??$uninitialize_environment_internal@_W@@YAXAEAPEAPEA_W@Z 000000018000d318 f   libucrt:environment_initialization.obj
 0001:0000c550       ??R<lambda_4e60a939b0d047cfe11ddc22648dfba9>@@QEBAHXZ 000000018000d550 f   libucrt:onexit.obj
 0001:0000c800       initialize_global_variables 000000018000d800 f   libucrt:initialization.obj
 0001:0000c814       initialize_c               000000018000d814 f   libucrt:initialization.obj
 0001:0000c838       uninitialize_environment   000000018000d838 f   libucrt:initialization.obj
 0001:0000c848       report_memory_leaks        000000018000d848 f   libucrt:initialization.obj
 0001:0000c848       initialize_environment     000000018000d848 f   libucrt:initialization.obj
 0001:0000c848       initialize_global_state_isolation 000000018000d848 f   libucrt:initialization.obj
 0001:0000c848       uninitialize_global_state_isolation 000000018000d848 f   libucrt:initialization.obj
 0001:0000c848       uninitialize_c             000000018000d848 f   libucrt:initialization.obj
 0001:0000c84c       initialize_pointers        000000018000d84c f   libucrt:initialization.obj
 0001:0000c8a0       uninitialize_vcruntime     000000018000d8a0 f   libucrt:initialization.obj
 0001:0000c8a8       uninitialize_allocated_memory 000000018000d8a8 f   libucrt:initialization.obj
 0001:0000d040       ??R<lambda_dd75445284c072d0bd3768540cc698fa>@@QEBAHXZ 000000018000e040 f   libucrt:output.obj
 0001:0000f4f0       ??$common_xtox@K_W@@YAHKQEA_W_KI_N@Z 00000001800104f0 f   libucrt:xtoa.obj
 0001:0000f59c       ??$common_xtox_s@K_W@@YAHKQEA_W_KI_N@Z 000000018001059c f   libucrt:xtoa.obj
 0001:0000f860       ??$message_box_wait_thread@_W@@YAKQEAX@Z 0000000180010860 f   libucrt:crtmbox.obj
 0001:0000fc1c       common_flush_all           0000000180010c1c f   libucrt:fflush.obj
 0001:0000fd84       ??R<lambda_b721fa326cdb32351d23dfa67958c160>@@QEBAHXZ 0000000180010d84 f   libucrt:setvbuf.obj
 0001:00010370       ?construct_ptd_array@@YAXQEAU__acrt_ptd@@@Z 0000000180011370 f   libucrt:per_thread_data.obj
 0001:00010440       ?destroy_fls@@YAXPEAX@Z    0000000180011440 f   libucrt:per_thread_data.obj
 0001:00010460       ?destroy_ptd_array@@YAXQEAU__acrt_ptd@@@Z 0000000180011460 f   libucrt:per_thread_data.obj
 0001:00010558       ?replace_current_thread_locale_nolock@@YAXQEAU__acrt_ptd@@QEAU__crt_locale_data@@@Z 0000000180011558 f   libucrt:per_thread_data.obj
 0001:00010798       ?internal_isupper_l@@YA_NHQEAU__crt_locale_pointers@@@Z 0000000180011798 f   libucrt:tolower_toupper.obj
 0001:00010ac8       ?try_get_function@@YAPEAXW4function_id@?A0x63058377@@QEBDQEBW4module_id@2@2@Z 0000000180011ac8 f   libucrt:winapi_thunks.obj
 0001:000112f4       ?<helper_func_cdecl>@<lambda_2feae5270eb4d0d5532525f423405775>@@CAHPEBX0@Z 00000001800122f4 f   libucrt:argv_wildcards.obj
 0001:00011308       ??$common_expand_argv_wildcards@D@@YAHQEAPEADQEAPEAPEAD@Z 0000000180012308 f   libucrt:argv_wildcards.obj
 0001:00011514       ??$copy_and_add_argument_to_buffer@D@@YAHQEBD0_KAEAV?$argument_list@D@?A0xca0879c4@@@Z 0000000180012514 f   libucrt:argv_wildcards.obj
 0001:00011624       ??$expand_argument_wildcards@D@@YAHQEAD0AEAV?$argument_list@D@?A0xca0879c4@@@Z 0000000180012624 f   libucrt:argv_wildcards.obj
 0001:000118d8       ??R<lambda_ad1ced32f4ac17aa236e5ef05d6b3b7c>@@QEBAXXZ 00000001800128d8 f   libucrt:mbctype.obj
 0001:00011af0       ?getSystemCP@@YAHH@Z       0000000180012af0 f   libucrt:mbctype.obj
 0001:00011b70       ?setSBCS@@YAXPEAU__crt_multibyte_data@@@Z 0000000180012b70 f   libucrt:mbctype.obj
 0001:00011c00       ?setSBUpLow@@YAXPEAU__crt_multibyte_data@@@Z 0000000180012c00 f   libucrt:mbctype.obj
 0001:00011de4       ?setmbcp_internal@@YAHH_N@Z 0000000180012de4 f   libucrt:mbctype.obj
 0001:0001232c       ?x_ismbbtype_l@@YAHPEAU__crt_locale_pointers@@IHH@Z 000000018001332c f   libucrt:ismbbyte.obj
 0001:000125ac       ?initialize_inherited_file_handles_nolock@@YAXXZ 00000001800135ac f   libucrt:ioinit.obj
 0001:00012698       ?initialize_stdio_handles_nolock@@YAXXZ 0000000180013698 f   libucrt:ioinit.obj
 0001:00013070       ?fp_format_a@@YAHQEBNPEAD_KQEAD2H_NIQEAU__crt_locale_pointers@@@Z 0000000180014070 f   libucrt:cvt.obj
 0001:000133d0       ?fp_format_e@@YAHQEBNQEAD_K12H_NIQEAU__crt_locale_pointers@@@Z 00000001800143d0 f   libucrt:cvt.obj
 0001:000134a0       ?fp_format_e_internal@@YAHQEAD_KH_NIQEAU_strflt@@2QEAU__crt_locale_pointers@@@Z 00000001800144a0 f   libucrt:cvt.obj
 0001:0001367c       ?fp_format_f_internal@@YAHQEAD_KHQEAU_strflt@@_NQEAU__crt_locale_pointers@@@Z 000000018001467c f   libucrt:cvt.obj
 0001:000137c4       ?fp_format_g@@YAHQEBNQEAD_K12H_NIQEAU__crt_locale_pointers@@@Z 00000001800147c4 f   libucrt:cvt.obj
 0001:000138fc       ?fp_format_nan_or_infinity@@YAHW4__acrt_fp_class@@_NPEAD_K1@Z 00000001800148fc f   libucrt:cvt.obj
 0001:0001421c       ?write_double_translated_ansi_nolock@@YA?AUwrite_result@?A0x9c548279@@HQEBDI@Z 000000018001521c f   libucrt:write.obj
 0001:00014424       ?write_text_ansi_nolock@@YA?AUwrite_result@?A0x9c548279@@HQEBDI@Z 0000000180015424 f   libucrt:write.obj
 0001:0001452c       ?write_text_utf16le_nolock@@YA?AUwrite_result@?A0x9c548279@@HQEBDI@Z 000000018001552c f   libucrt:write.obj
 0001:00014648       ?write_text_utf8_nolock@@YA?AUwrite_result@?A0x9c548279@@HQEBDI@Z 0000000180015648 f   libucrt:write.obj
 0001:00014fd8       ?__acrt_LCMapStringA_stat@@YAHPEAU__crt_locale_pointers@@PEB_WKPEBDHPEADHHH@Z 0000000180015fd8 f   libucrt:lcmapstringa.obj
 0001:00015544       ?free_crt_array_internal@@YAXQEAPEBX_K@Z 0000000180016544 f   libucrt:inittime.obj
 0001:00015858       ?GetTableIndexFromLocaleName@@YAHPEB_W@Z 0000000180016858 f   libucrt:lcidtoname_downlevel.obj
 0001:00015960       ?shortsort@@YAXPEAD0_KP6AHPEBX2@Z@Z 0000000180016960 f   libucrt:qsort.obj
 0001:00015f78       ?initialize_multibyte@@YAHXZ 0000000180016f78 f   libucrt:multibyte_initializer.obj
 0001:00017ccc       memcpy_s                   0000000180018ccc f   libucrt:cfout.obj
 0001:00017d54       ??$write_buffer_nolock@D@@YA_NDV__crt_stdio_stream@@@Z 0000000180018d54 f   libucrt:_flsbuf.obj
 0001:00017e58       ??$write_buffer_nolock@_W@@YA_N_WV__crt_stdio_stream@@@Z 0000000180018e58 f   libucrt:_flsbuf.obj
 0001:00018228       ??$common_lseek@_J@@YA_JH_JH@Z 0000000180019228 f   libucrt:lseek.obj
 0001:00018318       ??$common_lseek_nolock@_J@@YA_JH_JH@Z 0000000180019318 f   libucrt:lseek.obj
 0001:000185c0       $$000000                   00000001800195c0     libucrt:log10.obj
 0001:00018f74       common_control87           0000000180019f74 f   libucrt:ieee.obj
 0001:0001920c       _call_matherr              000000018001a20c f   libucrt:libm_error.obj
 0001:00019274       _exception_enabled         000000018001a274 f   libucrt:libm_error.obj
 0001:00019650       _log_special_common        000000018001a650 f   libucrt:log_special.obj
 0001:000196f0       $$000000                   000000018001a6f0     libucrt:fpsr.obj
 0001:00019d10       $$000000                   000000018001ad10     LIBCMT:_chkstk_.obj
 0001:00019d80       $$000000                   000000018001ad80     libvcruntime:memcmp.obj
 0001:0001a1a0       $$000000                   000000018001b1a0     libucrt:cosf.obj
 0001:0001a730       $$000000                   000000018001b730     libucrt:sinf.obj
 0001:0001ae30       $$000000                   000000018001be30     libucrt:remainder_piby2f_forasm.obj
 0001:0001af80       $$000000                   000000018001bf80     libucrt:remainder_piby2_forfma3.obj
 0001:0001b1fc       _sincosf_special           000000018001c1fc f   libucrt:sincos_special.obj
 0001:0001b2a0       $$000000                   000000018001c2a0     libucrt:remainder_piby2f_forc.obj
 0001:0001b430       $$000000                   000000018001c430     LIBCMT:_guard_dispatch_.obj
 0001:0001b450       __scrt_is_nonwritable_in_current_image$filt$0 000000018001c450 f   LIBCMT:utility.obj
 0001:0001b468       ?fin$0@?0??dllmain_crt_process_attach@@YAHQEAUHINSTANCE__@@QEAX@Z@4HA 000000018001c468 f   LIBCMT:dll_dllmain.obj
 0001:0001b47f       ?fin$0@?0??dllmain_crt_process_detach@@YAH_N@Z@4HA 000000018001c47f f   LIBCMT:dll_dllmain.obj
 0001:0001b49b       ?filt$0@?0??dllmain_dispatch@@YAHQEAUHINSTANCE__@@KQEAX@Z@4HA 000000018001c49b f   LIBCMT:dll_dllmain.obj
 0001:0001b4d1       _query_new_handler$fin$0   000000018001c4d1 f   libucrt:new_handler.obj
 0001:0001b4e7       ?filt$0@?0??common_exit@@YAXHW4_crt_exit_cleanup_mode@@W4_crt_exit_return_mode@@@Z@4HA 000000018001c4e7 f   libucrt:exit.obj
 0001:0001b502       ?fin$1@?0??common_exit@@YAXHW4_crt_exit_cleanup_mode@@W4_crt_exit_return_mode@@@Z@4HA 000000018001c502 f   libucrt:exit.obj
 0001:0001b51b       ?fin$0@?0???$?RV<lambda_e24bbb7b643b32fcea6fa61b31d4c984>@@AEAV<lambda_275893d493268fdec8709772e3fcec0e>@@V<lambda_9d71df4d7cf3f480f8d633942495c3b0>@@@?$__crt_seh_guarded_call@H@@QEAAH$$QEAV<lambda_e24bbb7b643b32fcea6fa61b31d4c984>@@AEAV<lambda_275893d493268fdec8709772e3fcec0e>@@$$QEAV<lambda_9d71df4d7cf3f480f8d633942495c3b0>@@@Z@4HA 000000018001c51b f   libucrt:onexit.obj
 0001:0001b538       common_flush_all$fin$0     000000018001c538 f   libucrt:fflush.obj
 0001:0001b552       common_flush_all$fin$1     000000018001c552 f   libucrt:fflush.obj
 0001:0001b56b       ?fin$0@?0???$?RV<lambda_7a5ef57ff966f610505f1d28a3d40618>@@AEAV<lambda_b721fa326cdb32351d23dfa67958c160>@@V<lambda_5e0fb27672408a07956fe59e48ccb2aa>@@@?$__crt_seh_guarded_call@H@@QEAAH$$QEAV<lambda_7a5ef57ff966f610505f1d28a3d40618>@@AEAV<lambda_b721fa326cdb32351d23dfa67958c160>@@$$QEAV<lambda_5e0fb27672408a07956fe59e48ccb2aa>@@@Z@4HA 000000018001c56b f   libucrt:setvbuf.obj
 0001:0001b56b       ?fin$0@?0???$?RV<lambda_7b91131dde12e1c3dfc74ff76b3f2eac>@@AEAV<lambda_dd75445284c072d0bd3768540cc698fa>@@V<lambda_16bc4ecb55b4718497c16bceaea2ceaf>@@@?$__crt_seh_guarded_call@H@@QEAAH$$QEAV<lambda_7b91131dde12e1c3dfc74ff76b3f2eac>@@AEAV<lambda_dd75445284c072d0bd3768540cc698fa>@@$$QEAV<lambda_16bc4ecb55b4718497c16bceaea2ceaf>@@@Z@4HA 000000018001c56b f   libucrt:output.obj
 0001:0001b586       raise$fin$0                000000018001c586 f   libucrt:signal.obj
 0001:0001b5aa       ?fin$0@?0???$?RV<lambda_72d1df2b273a38828b1ce30cbf4cdab5>@@AEAV<lambda_876a65b173b8412d3a47c70a915b0cf4>@@V<lambda_41932305e351933ebe8f8be3ed8bb5dc>@@@?$__crt_seh_guarded_call@X@@QEAAX$$QEAV<lambda_72d1df2b273a38828b1ce30cbf4cdab5>@@AEAV<lambda_876a65b173b8412d3a47c70a915b0cf4>@@$$QEAV<lambda_41932305e351933ebe8f8be3ed8bb5dc>@@@Z@4HA 000000018001c5aa f   libucrt:per_thread_data.obj
 0001:0001b5aa       ?fin$0@?0???$?RV<lambda_5e887d1dcbef67a5eb4283622ba103bf>@@AEAV<lambda_4466841279450cc726390878d4a41900>@@V<lambda_341c25c0346d94847f1f3c463c57e077>@@@?$__crt_seh_guarded_call@X@@QEAAX$$QEAV<lambda_5e887d1dcbef67a5eb4283622ba103bf>@@AEAV<lambda_4466841279450cc726390878d4a41900>@@$$QEAV<lambda_341c25c0346d94847f1f3c463c57e077>@@@Z@4HA 000000018001c5aa f   libucrt:per_thread_data.obj
 0001:0001b5aa       ?fin$0@?0???$?RV<lambda_46352004c1216016012b18bd6f87e700>@@AEAV<lambda_3bd07e1a1191394380780325891bf33f>@@V<lambda_334532d3f185bcaa59b5be82d7d22bff>@@@?$__crt_seh_guarded_call@X@@QEAAX$$QEAV<lambda_46352004c1216016012b18bd6f87e700>@@AEAV<lambda_3bd07e1a1191394380780325891bf33f>@@$$QEAV<lambda_334532d3f185bcaa59b5be82d7d22bff>@@@Z@4HA 000000018001c5aa f   libucrt:per_thread_data.obj
 0001:0001b5aa       ?fin$0@?0???$?RV<lambda_b8c45f8f788dd370798f47cfe8ac3a86>@@AEAV<lambda_4e60a939b0d047cfe11ddc22648dfba9>@@V<lambda_332c3edc96d0294ec56c57d38c1cdfd5>@@@?$__crt_seh_guarded_call@H@@QEAAH$$QEAV<lambda_b8c45f8f788dd370798f47cfe8ac3a86>@@AEAV<lambda_4e60a939b0d047cfe11ddc22648dfba9>@@$$QEAV<lambda_332c3edc96d0294ec56c57d38c1cdfd5>@@@Z@4HA 000000018001c5aa f   libucrt:onexit.obj
 0001:0001b5aa       ?fin$0@?0???$?RV<lambda_c36588078e9f5dfd39652860aa6b3aaf>@@AEAV<lambda_ec61778202f4f5fc7e7711acc23c3bca>@@V<lambda_dc9d2797ccde5d239b4a0efae8ebd7db>@@@?$__crt_seh_guarded_call@P6AXH@Z@@QEAAP6AXH@Z$$QEAV<lambda_c36588078e9f5dfd39652860aa6b3aaf>@@AEAV<lambda_ec61778202f4f5fc7e7711acc23c3bca>@@$$QEAV<lambda_dc9d2797ccde5d239b4a0efae8ebd7db>@@@Z@4HA 000000018001c5aa f   libucrt:signal.obj
 0001:0001b5aa       ?fin$0@?0???$?RV<lambda_fb3a7dec4e47f37f22dae91bb15c9095>@@AEAV<lambda_698284760c8add0bfb0756c19673e34b>@@V<lambda_dfb8eca1e75fef3034a8fb18dd509707>@@@?$__crt_seh_guarded_call@X@@QEAAX$$QEAV<lambda_fb3a7dec4e47f37f22dae91bb15c9095>@@AEAV<lambda_698284760c8add0bfb0756c19673e34b>@@$$QEAV<lambda_dfb8eca1e75fef3034a8fb18dd509707>@@@Z@4HA 000000018001c5aa f   libucrt:per_thread_data.obj
 0001:0001b5aa       ?fin$0@?0???$?RV<lambda_99476a1ad63dd22509b5d3e65b0ffc95>@@AEAV<lambda_ad1ced32f4ac17aa236e5ef05d6b3b7c>@@V<lambda_f7424dd8d45958661754dc4f2697e9c3>@@@?$__crt_seh_guarded_call@X@@QEAAX$$QEAV<lambda_99476a1ad63dd22509b5d3e65b0ffc95>@@AEAV<lambda_ad1ced32f4ac17aa236e5ef05d6b3b7c>@@$$QEAV<lambda_f7424dd8d45958661754dc4f2697e9c3>@@@Z@4HA 000000018001c5aa f   libucrt:mbctype.obj
 0001:0001b5c4       __acrt_update_thread_multibyte_data$fin$0 000000018001c5c4 f   libucrt:mbctype.obj
 0001:0001b5dd       __acrt_lowio_ensure_fh_exists$fin$0 000000018001c5dd f   libucrt:osfinfo.obj
 0001:0001b5dd       __acrt_initialize_lowio$fin$0 000000018001c5dd f   libucrt:ioinit.obj
 0001:0001b5f6       _fcloseall$fin$0           000000018001c5f6 f   libucrt:closeall.obj
 0001:0001b60f       __acrt_uninitialize_locale$fin$0 000000018001c60f f   libucrt:wsetlocale.obj
 0001:0001b60f       __acrt_update_thread_locale_data$fin$0 000000018001c60f f   libucrt:locale_refcounting.obj
 0001:0001b628       fflush$fin$0               000000018001c628 f   libucrt:fflush.obj
 0001:0001b628       fclose$fin$0               000000018001c628 f   libucrt:fclose.obj
 0001:0001b640       _write$fin$0               000000018001c640 f   libucrt:write.obj
 0001:0001b640       ?fin$0@?0???$common_lseek@_J@@YA_JH_JH@Z@4HA 000000018001c640 f   libucrt:lseek.obj
 0001:0001b657       ?fin$0@?0???$?RV<lambda_bfedae4ebbf01fab1bb6dcc6a9e276e0>@@AEAV<lambda_2fe9b910cf3cbf4a0ab98a02ba45b3ec>@@V<lambda_237c231691f317818eb88cc1d5d642d6>@@@?$__crt_seh_guarded_call@H@@QEAAH$$QEAV<lambda_bfedae4ebbf01fab1bb6dcc6a9e276e0>@@AEAV<lambda_2fe9b910cf3cbf4a0ab98a02ba45b3ec>@@$$QEAV<lambda_237c231691f317818eb88cc1d5d642d6>@@@Z@4HA 000000018001c657 f   libucrt:close.obj
 0001:0001b657       ?fin$0@?0???$?RV<lambda_b521505b218e5242e90febf6bfebc422>@@AEAV<lambda_6978c1fb23f02e42e1d9e99668cc68aa>@@V<lambda_314360699dd331753a4119843814e9a7>@@@?$__crt_seh_guarded_call@H@@QEAAH$$QEAV<lambda_b521505b218e5242e90febf6bfebc422>@@AEAV<lambda_6978c1fb23f02e42e1d9e99668cc68aa>@@$$QEAV<lambda_314360699dd331753a4119843814e9a7>@@@Z@4HA 000000018001c657 f   libucrt:commit.obj
 0001:0001b671       common_control87$filt$0    000000018001c671 f   libucrt:ieee.obj
 0001:0001b671       _ctrlfp$filt$0             000000018001c671 f   libucrt:fpctrl.obj
 0001:0001b6a0       _IsNonwritableInCurrentImage$filt$0 000000018001c6a0 f   LIBCMT:pesect.obj
 0001:0001b6c0       ??__Fm_persistentColorPixels@@YAXXZ 000000018001c6c0 f   kinect2.obj
 0001:0001b6d0       ??__Fm_persistentInfraredPixels@@YAXXZ 000000018001c6d0 f   kinect2.obj
 0001:0001b6e0       ??__Fm_persistentLongExposureInfraredPixels@@YAXXZ 000000018001c6e0 f   kinect2.obj
 0001:0001b6f0       ??__Fm_persistentDepthPixels@@YAXXZ 000000018001c6f0 f   kinect2.obj
 0001:0001b700       ??__Fm_persistentRawDepthValues@@YAXXZ 000000018001c700 f   kinect2.obj
 0001:0001b710       ??__Fm_persistentDepthColorPixels@@YAXXZ 000000018001c710 f   kinect2.obj
 0001:0001b720       ??__Fm_persistentBodyIndexColorPixels@@YAXXZ 000000018001c720 f   kinect2.obj
 0002:000003f8       ?m_persistentDepthPixels$initializer$@@3P6AXXZEA 000000018001d3f8     kinect2.obj
 0002:00000400       ?m_pRawDepthValuesV8$initializer$@@3P6AXXZEA 000000018001d400     kinect2.obj
 0002:00000408       ?m_persistentInfraredPixels$initializer$@@3P6AXXZEA 000000018001d408     kinect2.obj
 0002:00000410       ?m_persistentRawDepthValues$initializer$@@3P6AXXZEA 000000018001d410     kinect2.obj
 0002:00000418       ?m_pInfraredPixels$initializer$@@3P6AXXZEA 000000018001d418     kinect2.obj
 0002:00000420       ?m_pDepthPixelsV8$initializer$@@3P6AXXZEA 000000018001d420     kinect2.obj
 0002:00000428       ?m_pDepthColorPixelsV8$initializer$@@3P6AXXZEA 000000018001d428     kinect2.obj
 0002:00000430       ?m_pLongExposureInfraredPixels$initializer$@@3P6AXXZEA 000000018001d430     kinect2.obj
 0002:00000438       ?m_persistentDepthColorPixels$initializer$@@3P6AXXZEA 000000018001d438     kinect2.obj
 0002:00000440       ?m_pColorPixels$initializer$@@3P6AXXZEA 000000018001d440     kinect2.obj
 0002:00000448       ?m_persistentLongExposureInfraredPixels$initializer$@@3P6AXXZEA 000000018001d448     kinect2.obj
 0002:00000450       ?m_pDepthCoordinatesForColor$initializer$@@3P6AXXZEA 000000018001d450     kinect2.obj
 0002:00000458       ?m_persistentColorPixels$initializer$@@3P6AXXZEA 000000018001d458     kinect2.obj
 0002:00000460       ?m_pInfraredPixelsV8$initializer$@@3P6AXXZEA 000000018001d460     kinect2.obj
 0002:00000468       ?m_pDepthPixels$initializer$@@3P6AXXZEA 000000018001d468     kinect2.obj
 0002:00000470       ?m_pColorCoordinatesForDepth$initializer$@@3P6AXXZEA 000000018001d470     kinect2.obj
 0002:00000478       ?m_persistentBodyIndexColorPixels$initializer$@@3P6AXXZEA 000000018001d478     kinect2.obj
 0002:00000480       ?m_pColorPixelsV8$initializer$@@3P6AXXZEA 000000018001d480     kinect2.obj
 0002:00000488       ?m_pDepthColorPixels$initializer$@@3P6AXXZEA 000000018001d488     kinect2.obj
 0002:00000490       ?m_pRawDepthValues$initializer$@@3P6AXXZEA 000000018001d490     kinect2.obj
 0002:00000498       ?m_pLongExposureInfraredPixelsV8$initializer$@@3P6AXXZEA 000000018001d498     kinect2.obj
 0002:000005b0       GS_ExceptionPointers       000000018001d5b0     LIBCMT:gs_report.obj
 0002:00000610       ?ExceptionTemplate@?1??_CxxThrowException@@9@4UEHExceptionRecord@@B 000000018001d610     libvcruntime:throw.obj
 0002:00000680       ?module_names@?A0x49c8dc86@@3QBQEB_WB 000000018001d680     libvcruntime:winapi_downlevel.obj
 0002:0000074c       ?candidate_modules@?1??try_get_EventRegister@@YAP6AKPEBU_GUID@@P6AX0KE_K1PEAU_EVENT_FILTER_DESCRIPTOR@@PEAX@Z3PEA_K@ZXZ@4QBW4module_id@?A0x49c8dc86@@B 000000018001d74c     libvcruntime:winapi_downlevel.obj
 0002:00000760       ?candidate_modules@?1??try_get_EventSetInformation@@YAP6AK_KW4_EVENT_INFO_CLASS@@PEAXK@ZXZ@4QBW4module_id@?A0x49c8dc86@@B 000000018001d760     libvcruntime:winapi_downlevel.obj
 0002:0000077c       ?candidate_modules@?1??try_get_EventUnregister@@YAP6AK_K@ZXZ@4QBW4module_id@?A0x49c8dc86@@B 000000018001d77c     libvcruntime:winapi_downlevel.obj
 0002:00000790       ?candidate_modules@?1??try_get_EventWriteTransfer@@YAP6AK_KPEBU_EVENT_DESCRIPTOR@@PEBU_GUID@@2KPEAU_EVENT_DATA_DESCRIPTOR@@@ZXZ@4QBW4module_id@?A0x49c8dc86@@B 000000018001d790     libvcruntime:winapi_downlevel.obj
 0002:000007b0       ?candidate_modules@?1??try_get_FlsAlloc@@YAP6AKP6AXPEAX@Z@ZXZ@4QBW4module_id@?A0x49c8dc86@@B 000000018001d7b0     libvcruntime:winapi_downlevel.obj
 0002:000007c8       ?candidate_modules@?1??try_get_FlsFree@@YAP6AHK@ZXZ@4QBW4module_id@?A0x49c8dc86@@B 000000018001d7c8     libvcruntime:winapi_downlevel.obj
 0002:000007d8       ?candidate_modules@?1??try_get_FlsGetValue@@YAP6APEAXK@ZXZ@4QBW4module_id@?A0x49c8dc86@@B 000000018001d7d8     libvcruntime:winapi_downlevel.obj
 0002:000007f0       ?candidate_modules@?1??try_get_FlsSetValue@@YAP6AHKPEAX@ZXZ@4QBW4module_id@?A0x49c8dc86@@B 000000018001d7f0     libvcruntime:winapi_downlevel.obj
 0002:00000808       ?candidate_modules@?1??try_get_InitializeCriticalSectionEx@@YAP6AHPEAU_RTL_CRITICAL_SECTION@@KK@ZXZ@4QBW4module_id@?A0x49c8dc86@@B 000000018001d808     libvcruntime:winapi_downlevel.obj
 0002:00000830       ?tokenTable@@3QBQEBDB      000000018001d830     libvcruntime:undname.obj
 0002:000008a0       ?nameTable@@3QBQEBDB       000000018001d8a0     libvcruntime:undname.obj
 0002:00000b28       ?rttiTable@@3QBQEBDB       000000018001db28     libvcruntime:undname.obj
 0002:00001590       __acrt_initializers        000000018001e590     libucrt:initialization.obj
 0002:00001700       errtable                   000000018001e700     libucrt:errno.obj
 0002:00001ef0       module_names               000000018001eef0     libucrt:winapi_thunks.obj
 0002:00002420       ?candidate_modules@?1??try_get_FlsAlloc@@YAP6AKP6AXPEAX@Z@ZXZ@4QBW4module_id@?A0x63058377@@B 000000018001f420     libucrt:winapi_thunks.obj
 0002:00002428       ?candidate_modules@?1??try_get_FlsFree@@YAP6AHK@ZXZ@4QBW4module_id@?A0x63058377@@B 000000018001f428     libucrt:winapi_thunks.obj
 0002:00002430       ?candidate_modules@?1??try_get_FlsGetValue@@YAP6APEAXK@ZXZ@4QBW4module_id@?A0x63058377@@B 000000018001f430     libucrt:winapi_thunks.obj
 0002:00002438       ?candidate_modules@?1??try_get_FlsSetValue@@YAP6AHKPEAX@ZXZ@4QBW4module_id@?A0x63058377@@B 000000018001f438     libucrt:winapi_thunks.obj
 0002:00002440       ?candidate_modules@?1??try_get_GetActiveWindow@@YAP6APEAUHWND__@@XZXZ@4QBW4module_id@?A0x63058377@@B 000000018001f440     libucrt:winapi_thunks.obj
 0002:00002458       ?candidate_modules@?1??try_get_GetCurrentPackageId@@YAP6AJPEAIPEAE@ZXZ@4QBW4module_id@?A0x63058377@@B 000000018001f458     libucrt:winapi_thunks.obj
 0002:00002478       ?candidate_modules@?1??try_get_GetLastActivePopup@@YAP6APEAUHWND__@@PEAU2@@ZXZ@4QBW4module_id@?A0x63058377@@B 000000018001f478     libucrt:winapi_thunks.obj
 0002:00002498       ?candidate_modules@?1??try_get_GetProcessWindowStation@@YAP6APEAUHWINSTA__@@XZXZ@4QBW4module_id@?A0x63058377@@B 000000018001f498     libucrt:winapi_thunks.obj
 0002:000024b8       ?candidate_modules@?1??try_get_GetUserObjectInformationW@@YAP6AHPEAXH0KPEAK@ZXZ@4QBW4module_id@?A0x63058377@@B 000000018001f4b8     libucrt:winapi_thunks.obj
 0002:000024e0       ?candidate_modules@?1??try_get_InitializeCriticalSectionEx@@YAP6AHPEAU_RTL_CRITICAL_SECTION@@KK@ZXZ@4QBW4module_id@?A0x63058377@@B 000000018001f4e0     libucrt:winapi_thunks.obj
 0002:000024e8       ?candidate_modules@?1??try_get_LCMapStringEx@@YAP6AHPEB_WK0HPEA_WHPEAU_nlsversioninfo@@PEAX_J@ZXZ@4QBW4module_id@?A0x63058377@@B 000000018001f4e8     libucrt:winapi_thunks.obj
 0002:00002500       ?candidate_modules@?1??try_get_LocaleNameToLCID@@YAP6AKPEB_WK@ZXZ@4QBW4module_id@?A0x63058377@@B 000000018001f500     libucrt:winapi_thunks.obj
 0002:00002520       ?candidate_modules@?1??try_get_MessageBoxA@@YAP6AHPEAUHWND__@@PEBD1I@ZXZ@4QBW4module_id@?A0x63058377@@B 000000018001f520     libucrt:winapi_thunks.obj
 0002:00002538       ?candidate_modules@?1??try_get_MessageBoxW@@YAP6AHPEAUHWND__@@PEB_W1I@ZXZ@4QBW4module_id@?A0x63058377@@B 000000018001f538     libucrt:winapi_thunks.obj
 0002:00002550       _mb_locale_names           000000018001f550     libucrt:mbctype.obj
 0002:00002e20       LcidToLocaleNameTable      000000018001fe20     libucrt:lcidtoname_downlevel.obj
 0002:00004870       LocaleNameToIndexTable     0000000180021870     libucrt:lcidtoname_downlevel.obj
 0002:00006b10       __real_ninf                0000000180023b10     libucrt:log10.obj
 0002:00006b20       __real_inf                 0000000180023b20     libucrt:log10.obj
 0002:00006b30       __real_neg_qnan            0000000180023b30     libucrt:log10.obj
 0002:00006b40       __real_qnanbit             0000000180023b40     libucrt:log10.obj
 0002:00006b50       __int_1023                 0000000180023b50     libucrt:log10.obj
 0002:00006b60       __mask_001                 0000000180023b60     libucrt:log10.obj
 0002:00006b70       __mask_mant                0000000180023b70     libucrt:log10.obj
 0002:00006b80       __mask_mant_top8           0000000180023b80     libucrt:log10.obj
 0002:00006b90       __mask_mant9               0000000180023b90     libucrt:log10.obj
 0002:00006ba0       __real_log10_e             0000000180023ba0     libucrt:log10.obj
 0002:00006bb0       __real_log10_e_lead        0000000180023bb0     libucrt:log10.obj
 0002:00006bc0       __real_log10_e_tail        0000000180023bc0     libucrt:log10.obj
 0002:00006bd0       __real_log10_2_lead        0000000180023bd0     libucrt:log10.obj
 0002:00006be0       __real_log10_2_tail        0000000180023be0     libucrt:log10.obj
 0002:00006bf0       __real_two                 0000000180023bf0     libucrt:log10.obj
 0002:00006c00       __real_one                 0000000180023c00     libucrt:log10.obj
 0002:00006c10       __real_half                0000000180023c10     libucrt:log10.obj
 0002:00006c20       __mask_100                 0000000180023c20     libucrt:log10.obj
 0002:00006c30       __real_1_over_512          0000000180023c30     libucrt:log10.obj
 0002:00006c40       __real_1_over_2            0000000180023c40     libucrt:log10.obj
 0002:00006c50       __real_1_over_3            0000000180023c50     libucrt:log10.obj
 0002:00006c60       __real_1_over_4            0000000180023c60     libucrt:log10.obj
 0002:00006c70       __real_1_over_5            0000000180023c70     libucrt:log10.obj
 0002:00006c80       __real_1_over_6            0000000180023c80     libucrt:log10.obj
 0002:00006c90       __real_neg_1023            0000000180023c90     libucrt:log10.obj
 0002:00006ca0       __mask_2045                0000000180023ca0     libucrt:log10.obj
 0002:00006cb0       __real_threshold           0000000180023cb0     libucrt:log10.obj
 0002:00006cc0       __real_near_one_lt         0000000180023cc0     libucrt:log10.obj
 0002:00006cd0       __real_near_one_gt         0000000180023cd0     libucrt:log10.obj
 0002:00006ce0       __real_min_norm            0000000180023ce0     libucrt:log10.obj
 0002:00006cf0       __real_notsign             0000000180023cf0     libucrt:log10.obj
 0002:00006d00       __real_ca1                 0000000180023d00     libucrt:log10.obj
 0002:00006d10       __real_ca2                 0000000180023d10     libucrt:log10.obj
 0002:00006d20       __real_ca3                 0000000180023d20     libucrt:log10.obj
 0002:00006d30       __real_ca4                 0000000180023d30     libucrt:log10.obj
 0002:00006d40       __mask_lower               0000000180023d40     libucrt:log10.obj
 0002:00006d50       __flag_x_zero              0000000180023d50     libucrt:log10.obj
 0002:00006d54       __flag_x_neg               0000000180023d54     libucrt:log10.obj
 0002:00006d58       __flag_x_nan               0000000180023d58     libucrt:log10.obj
 0002:000085b0       __real@433fffffffffffff    00000001800255b0     libucrt:fpsr.obj
 0002:000085b8       __real@c33fffffffffffff    00000001800255b8     libucrt:fpsr.obj
 0002:00008ba0       L_real_one                 0000000180025ba0     libucrt:cosf.obj
 0002:00008bb0       L_one_half                 0000000180025bb0     libucrt:cosf.obj
 0002:00008bc0       L_2bypi                    0000000180025bc0     libucrt:cosf.obj
 0002:00008bd0       L_one_sixth                0000000180025bd0     libucrt:cosf.obj
 0002:00008be0       L_piby2                    0000000180025be0     libucrt:cosf.obj
 0002:00008bf0       L_piby2_1                  0000000180025bf0     libucrt:cosf.obj
 0002:00008c00       L_piby2_1tail              0000000180025c00     libucrt:cosf.obj
 0002:00008c10       L_piby2_2                  0000000180025c10     libucrt:cosf.obj
 0002:00008c20       L_piby2_2tail              0000000180025c20     libucrt:cosf.obj
 0002:00008c30       L_large_x_sse2             0000000180025c30     libucrt:cosf.obj
 0002:00008c40       L_large_x_fma3             0000000180025c40     libucrt:cosf.obj
 0002:00008c50       L_sign_mask                0000000180025c50     libucrt:cosf.obj
 0002:00008c60       L__int_three               0000000180025c60     libucrt:cosf.obj
 0002:00008c70       L__min_norm_double         0000000180025c70     libucrt:cosf.obj
 0002:00008c80       L_two_to_neg_7             0000000180025c80     libucrt:cosf.obj
 0002:00008c90       L_two_to_neg_13            0000000180025c90     libucrt:cosf.obj
 0002:00008ca0       L_two_to_32_float          0000000180025ca0     libucrt:cosf.obj
 0002:00008ca8       L_one_float                0000000180025ca8     libucrt:cosf.obj
 0002:00008cb0       L_inf_mask_32              0000000180025cb0     libucrt:cosf.obj
 0002:00008cc0       L_signbit                  0000000180025cc0     libucrt:sinf.obj
 0002:00008cd0       L_sign_mask                0000000180025cd0     libucrt:sinf.obj
 0002:00008ce0       L_one                      0000000180025ce0     libucrt:sinf.obj
 0002:00008cf0       L_int_three                0000000180025cf0     libucrt:sinf.obj
 0002:00008d00       L_one_half                 0000000180025d00     libucrt:sinf.obj
 0002:00008d10       L_twobypi                  0000000180025d10     libucrt:sinf.obj
 0002:00008d20       L_piby2_1                  0000000180025d20     libucrt:sinf.obj
 0002:00008d30       L_one_sixth                0000000180025d30     libucrt:sinf.obj
 0002:00008d40       L_piby2_1tail              0000000180025d40     libucrt:sinf.obj
 0002:00008d50       L_piby2_2                  0000000180025d50     libucrt:sinf.obj
 0002:00008d60       L_piby2_2tail              0000000180025d60     libucrt:sinf.obj
 0002:00008d70       L_inf_mask_32              0000000180025d70     libucrt:sinf.obj
 0002:00008d80       L_int_two                  0000000180025d80     libucrt:sinf.obj
 0002:00008d90       L_piby2_lead               0000000180025d90     libucrt:sinf.obj
 0002:00008da0       L_piby4                    0000000180025da0     libucrt:sinf.obj
 0002:00008db0       L_mask_3f2                 0000000180025db0     libucrt:sinf.obj
 0002:00008dc0       L_mask_3f8                 0000000180025dc0     libucrt:sinf.obj
 0002:00008dd0       L_large_x_fma3             0000000180025dd0     libucrt:sinf.obj
 0002:00008dd8       L_large_x_sse2             0000000180025dd8     libucrt:sinf.obj
 0002:00008de0       L_near_one                 0000000180025de0     libucrt:sinf.obj
 0002:00008de8       L_two_to_32                0000000180025de8     libucrt:sinf.obj
 0002:00008df0       L__piby2                   0000000180025df0     libucrt:remainder_piby2f_forasm.obj
 0002:00008e00       L_piby2_lead               0000000180025e00     libucrt:remainder_piby2_forfma3.obj
 0002:00008e10       L_fff800                   0000000180025e10     libucrt:remainder_piby2_forfma3.obj
 0002:00008e20       L_piby2_part1              0000000180025e20     libucrt:remainder_piby2_forfma3.obj
 0002:00008e30       L_piby2_part2              0000000180025e30     libucrt:remainder_piby2_forfma3.obj
 0002:00008e40       L_piby2_part3              0000000180025e40     libucrt:remainder_piby2_forfma3.obj
 0002:00008e50       L_piby2_1                  0000000180025e50     libucrt:remainder_piby2_forfma3.obj
 0002:00008e60       L_piby2_2                  0000000180025e60     libucrt:remainder_piby2_forfma3.obj
 0002:00008e70       L_piby2_3                  0000000180025e70     libucrt:remainder_piby2_forfma3.obj
 0002:00008e80       L_piby2_1tail              0000000180025e80     libucrt:remainder_piby2_forfma3.obj
 0002:00008e90       L_piby2_2tail              0000000180025e90     libucrt:remainder_piby2_forfma3.obj
 0002:00008ea0       L_piby2_3tail              0000000180025ea0     libucrt:remainder_piby2_forfma3.obj
 0002:00008eb0       L_sign_mask                0000000180025eb0     libucrt:remainder_piby2_forfma3.obj
 0002:00008ec0       L_twobypi                  0000000180025ec0     libucrt:remainder_piby2_forfma3.obj
 0002:00008ed0       L_point_five               0000000180025ed0     libucrt:remainder_piby2_forfma3.obj
 0002:00008ee0       L_int_three                0000000180025ee0     libucrt:remainder_piby2_forfma3.obj
 0002:00008ef0       L_inf_mask_64              0000000180025ef0     libucrt:remainder_piby2_forfma3.obj
 0002:00008f00       L_signbit                  0000000180025f00     libucrt:remainder_piby2_forfma3.obj
 0002:00008f10       L_r                        0000000180025f10     libucrt:remainder_piby2_forfma3.obj
 0002:00008f20       L_xc1                      0000000180025f20     libucrt:remainder_piby2_forfma3.obj
 0002:00008f30       L_xc2                      0000000180025f30     libucrt:remainder_piby2_forfma3.obj
 0002:00008f40       L_xc3                      0000000180025f40     libucrt:remainder_piby2_forfma3.obj
 0002:00008f50       L_sigma                    0000000180025f50     libucrt:remainder_piby2_forfma3.obj
 0002:00009060       L__piby2                   0000000180026060     libucrt:remainder_piby2f_forc.obj
 0002:00009070       L__2_by_pi_bits            0000000180026070     libucrt:remainder_piby2f_forc.obj
 0002:000095a0       ?_TlgEvent@?3??__telemetry_main_invoke_trigger@@9@4U<unnamed-type-_TlgEvent>@?3??1@YAXQEAUHINSTANCE__@@@Z@B 00000001800265a0     libvcruntime:telemetry.obj
 0002:000095dc       ?_TlgEvent@?3??__telemetry_main_return_trigger@@9@4U<unnamed-type-_TlgEvent>@?3??1@YAXQEAUHINSTANCE__@@@Z@B 00000001800265dc     libvcruntime:telemetry.obj
 0002:00009617       ?_Tlg_Microsoft_CRTProviderProv_Meta@@3U<unnamed-type-_Tlg_Microsoft_CRTProviderProv_Meta>@@B 0000000180026617     libvcruntime:telemetry.obj
 0002:00009a70       $unwind$?FunctionCallbackWrapper@imp@Nan@@YAXAEBV?$FunctionCallbackInfo@VValue@v8@@@v8@@@Z 0000000180026a70     kinect2.obj
 0002:00009a80       $unwind$?New@?$Factory@VFunctionTemplate@v8@@@imp@Nan@@SA?AV?$Local@VFunctionTemplate@v8@@@v8@@P6AXAEBV?$FunctionCallbackInfo@VValue@v8@@@3@@ZV?$Local@VValue@v8@@@5@V?$Local@VSignature@v8@@@5@@Z 0000000180026a80     kinect2.obj
 0002:00009a90       $chain$0$?New@?$Factory@VFunctionTemplate@v8@@@imp@Nan@@SA?AV?$Local@VFunctionTemplate@v8@@@v8@@P6AXAEBV?$FunctionCallbackInfo@VValue@v8@@@3@@ZV?$Local@VValue@v8@@@5@V?$Local@VSignature@v8@@@5@@Z 0000000180026a90     kinect2.obj
 0002:00009aa4       $chain$1$?New@?$Factory@VFunctionTemplate@v8@@@imp@Nan@@SA?AV?$Local@VFunctionTemplate@v8@@@v8@@P6AXAEBV?$FunctionCallbackInfo@VValue@v8@@@3@@ZV?$Local@VValue@v8@@@5@V?$Local@VSignature@v8@@@5@@Z 0000000180026aa4     kinect2.obj
 0002:00009ab8       $chain$2$?New@?$Factory@VFunctionTemplate@v8@@@imp@Nan@@SA?AV?$Local@VFunctionTemplate@v8@@@v8@@P6AXAEBV?$FunctionCallbackInfo@VValue@v8@@@3@@ZV?$Local@VValue@v8@@@5@V?$Local@VSignature@v8@@@5@@Z 0000000180026ab8     kinect2.obj
 0002:00009ac8       $chain$3$?New@?$Factory@VFunctionTemplate@v8@@@imp@Nan@@SA?AV?$Local@VFunctionTemplate@v8@@@v8@@P6AXAEBV?$FunctionCallbackInfo@VValue@v8@@@3@@ZV?$Local@VValue@v8@@@5@V?$Local@VSignature@v8@@@5@@Z 0000000180026ac8     kinect2.obj
 0002:00009ad8       $unwind$?Call@Callback@Nan@@QEBA?AV?$Local@VValue@v8@@@v8@@HQEAV34@@Z 0000000180026ad8     kinect2.obj
 0002:00009aec       $unwind$??__Em_pInfraredPixels@@YAXXZ 0000000180026aec     kinect2.obj
 0002:00009aec       $unwind$__vcrt_uninitialize_critical 0000000180026aec     libvcruntime:initialization.obj
 0002:00009aec       $unwind$__acrt_release_locale_ref 0000000180026aec     libucrt:locale_refcounting.obj
 0002:00009aec       $unwind$__vcrt_initialize  0000000180026aec     libvcruntime:initialization.obj
 0002:00009aec       $unwind$__doserrno         0000000180026aec     libucrt:errno.obj
 0002:00009aec       $unwind$_errno             0000000180026aec     libucrt:errno.obj
 0002:00009aec       $unwind$??$uninitialize_environment_internal@_W@@YAXAEAPEAPEA_W@Z 0000000180026aec     libucrt:environment_initialization.obj
 0002:00009aec       $unwind$__acrt_initialize_heap 0000000180026aec     libucrt:heap_handle.obj
 0002:00009aec       $unwind$??__Em_pDepthColorPixels@@YAXXZ 0000000180026aec     kinect2.obj
 0002:00009aec       $unwind$__acrt_DownlevelLocaleNameToLCID 0000000180026aec     libucrt:lcidtoname_downlevel.obj
 0002:00009aec       $unwind$_msize             0000000180026aec     libucrt:msize.obj
 0002:00009aec       $unwind$??__Em_pDepthPixels@@YAXXZ 0000000180026aec     kinect2.obj
 0002:00009aec       $unwind$??__Em_pDepthColorPixelsV8@@YAXXZ 0000000180026aec     kinect2.obj
 0002:00009aec       $unwind$??$uninitialize_environment_internal@D@@YAXAEAPEAPEAD@Z 0000000180026aec     libucrt:environment_initialization.obj
 0002:00009aec       $unwind$__dcrt_uninitialize_environments_nolock 0000000180026aec     libucrt:environment_initialization.obj
 0002:00009aec       $unwind$__pctype_func      0000000180026aec     libucrt:ctype.obj
 0002:00009aec       $unwind$??__Em_pDepthCoordinatesForColor@@YAXXZ 0000000180026aec     kinect2.obj
 0002:00009aec       $unwind$?initialize_multibyte@@YAHXZ 0000000180026aec     libucrt:multibyte_initializer.obj
 0002:00009aec       $unwind$?state_case_size@?$output_processor@_WV?$stream_output_adapter@_W@__crt_stdio_output@@V?$standard_base@_WV?$stream_output_adapter@_W@__crt_stdio_output@@@2@@__crt_stdio_output@@AEAA_NXZ 0000000180026aec     libucrt:output.obj
 0002:00009aec       $unwind$??__Em_pColorPixelsV8@@YAXXZ 0000000180026aec     kinect2.obj
 0002:00009aec       $unwind$??__Em_pColorCoordinatesForDepth@@YAXXZ 0000000180026aec     kinect2.obj
 0002:00009aec       $unwind$__GSHandlerCheck   0000000180026aec     LIBCMT:_gshandler_.obj
 0002:00009aec       $unwind$??__Em_pRawDepthValuesV8@@YAXXZ 0000000180026aec     kinect2.obj
 0002:00009aec       $unwind$uninitialize_environment 0000000180026aec     libucrt:initialization.obj
 0002:00009aec       $unwind$initialize_c       0000000180026aec     libucrt:initialization.obj
 0002:00009aec       $unwind$tolower            0000000180026aec     libucrt:tolower_toupper.obj
 0002:00009aec       $unwind$__acrt_thread_detach 0000000180026aec     libucrt:initialization.obj
 0002:00009aec       $unwind$__vcrt_thread_attach 0000000180026aec     libvcruntime:initialization.obj
 0002:00009aec       $unwind$__acrt_uninitialize_critical 0000000180026aec     libucrt:initialization.obj
 0002:00009aec       $unwind$?dllmain_crt_dispatch@@YAHQEAUHINSTANCE__@@KQEAX@Z 0000000180026aec     LIBCMT:dll_dllmain.obj
 0002:00009aec       $unwind$_invoke_watson     0000000180026aec     libucrt:invalid_parameter.obj
 0002:00009aec       $unwind$?state_case_size@?$output_processor@_WV?$string_output_adapter@_W@__crt_stdio_output@@V?$standard_base@_WV?$string_output_adapter@_W@__crt_stdio_output@@@2@@__crt_stdio_output@@AEAA_NXZ 0000000180026aec     libucrt:output.obj
 0002:00009aec       $unwind$_set_error_mode    0000000180026aec     libucrt:set_error_mode.obj
 0002:00009aec       $unwind$??__Em_pRawDepthValues@@YAXXZ 0000000180026aec     kinect2.obj
 0002:00009aec       $unwind$_getfpcontrolword  0000000180026aec     libucrt:_fenvutils.obj
 0002:00009aec       $unwind$abort              0000000180026aec     libucrt:abort.obj
 0002:00009aec       $unwind$_statfp            0000000180026aec     libucrt:fpctrl.obj
 0002:00009aec       $unwind$_set_errno_from_matherr 0000000180026aec     libucrt:fpexcept.obj
 0002:00009aec       $unwind$_get_osfhandle     0000000180026aec     libucrt:osfinfo.obj
 0002:00009aec       $unwind$??__Em_pInfraredPixelsV8@@YAXXZ 0000000180026aec     kinect2.obj
 0002:00009aec       $unwind$??__Em_pDepthPixelsV8@@YAXXZ 0000000180026aec     kinect2.obj
 0002:00009aec       $unwind$__acrt_initialize_command_line 0000000180026aec     libucrt:argv_data.obj
 0002:00009aec       $unwind$__report_rangecheckfailure 0000000180026aec     LIBCMT:gs_report.obj
 0002:00009aec       $unwind$atexit             0000000180026aec     LIBCMT:utility.obj
 0002:00009aec       $unwind$??__Em_pLongExposureInfraredPixels@@YAXXZ 0000000180026aec     kinect2.obj
 0002:00009aec       $unwind$_getfpstatusword   0000000180026aec     libucrt:_fenvutils.obj
 0002:00009aec       $unwind$__dcrt_terminate_console_output 0000000180026aec     libucrt:initcon.obj
 0002:00009aec       $unwind$_fileno            0000000180026aec     libucrt:fileno.obj
 0002:00009aec       $unwind$__vcrt_freefls     0000000180026aec     libvcruntime:per_thread_data.obj
 0002:00009aec       $unwind$__scrt_dllmain_crt_thread_detach 0000000180026aec     LIBCMT:utility.obj
 0002:00009aec       $unwind$__acrt_uninitialize_ptd 0000000180026aec     libucrt:per_thread_data.obj
 0002:00009aec       $unwind$__scrt_acquire_startup_lock 0000000180026aec     LIBCMT:utility.obj
 0002:00009aec       $unwind$__acrt_initialize_ptd 0000000180026aec     libucrt:per_thread_data.obj
 0002:00009aec       $unwind$__scrt_dllmain_crt_thread_attach 0000000180026aec     LIBCMT:utility.obj
 0002:00009aec       $unwind$_isatty            0000000180026aec     libucrt:isatty.obj
 0002:00009aec       $unwind$??__Em_pColorPixels@@YAXXZ 0000000180026aec     kinect2.obj
 0002:00009aec       $unwind$__vcrt_thread_detach 0000000180026aec     libvcruntime:initialization.obj
 0002:00009aec       $unwind$__scrt_dllmain_uninitialize_critical 0000000180026aec     LIBCMT:utility.obj
 0002:00009aec       $unwind$__acrt_initialize_multibyte 0000000180026aec     libucrt:mbctype.obj
 0002:00009aec       $unwind$__acrt_thread_attach 0000000180026aec     libucrt:initialization.obj
 0002:00009aec       $unwind$__vcrt_uninitialize_ptd 0000000180026aec     libvcruntime:per_thread_data.obj
 0002:00009aec       $unwind$__vcrt_initialize_ptd 0000000180026aec     libvcruntime:per_thread_data.obj
 0002:00009aec       $unwind$__scrt_initialize_default_local_stdio_options 0000000180026aec     LIBCMT:default_local_stdio_options.obj
 0002:00009aec       $unwind$__scrt_dllmain_before_initialize_c 0000000180026aec     LIBCMT:utility.obj
 0002:00009aec       $unwind$??__Em_pLongExposureInfraredPixelsV8@@YAXXZ 0000000180026aec     kinect2.obj
 0002:00009aec       $unwind$__scrt_dllmain_after_initialize_c 0000000180026aec     LIBCMT:utility.obj
 0002:00009aec       $unwind$__vcrt_uninitialize_telemetry_provider 0000000180026aec     libvcruntime:telemetry.obj
 0002:00009aec       $unwind$__scrt_dllmain_uninitialize_c 0000000180026aec     LIBCMT:utility.obj
 0002:00009af4       $unwind$?exit_or_terminate_process@@YAXI@Z 0000000180026af4     libucrt:exit.obj
 0002:00009af4       $unwind$__scrt_uninitialize_crt 0000000180026af4     LIBCMT:utility.obj
 0002:00009af4       $unwind$__scrt_initialize_crt 0000000180026af4     LIBCMT:utility.obj
 0002:00009af4       $unwind$__scrt_release_startup_lock 0000000180026af4     LIBCMT:utility.obj
 0002:00009af4       $unwind$?OpenFunction@@YAXAEBV?$FunctionCallbackInfo@VValue@v8@@@Nan@@@Z 0000000180026af4     kinect2.obj
 0002:00009af4       $unwind$_clearfp           0000000180026af4     libucrt:ieee.obj
 0002:00009af4       $unwind$_fflush_nolock     0000000180026af4     libucrt:fflush.obj
 0002:00009af4       $unwind$_onexit            0000000180026af4     LIBCMT:utility.obj
 0002:00009af4       $unwind$__acrt_allocate_buffer_for_argv 0000000180026af4     libucrt:argv_parsing.obj
 0002:00009af4       $unwind$__acrt_can_show_message_box 0000000180026af4     libucrt:winapi_thunks.obj
 0002:00009af4       $unwind$__acrt_freeptd     0000000180026af4     libucrt:per_thread_data.obj
 0002:00009af4       $unwind$_clrfp             0000000180026af4     libucrt:fpctrl.obj
 0002:00009af4       $unwind$__acrt_initialize_locks 0000000180026af4     libucrt:locks.obj
 0002:00009af4       $unwind$__acrt_uninitialize_winapi_thunks 0000000180026af4     libucrt:winapi_thunks.obj
 0002:00009af4       $unwind$__acrt_uninitialize_locks 0000000180026af4     libucrt:locks.obj
 0002:00009af4       $unwind$_set_statfp        0000000180026af4     libucrt:fpctrl.obj
 0002:00009af4       $unwind$?type_case_integer@?$output_processor@_WV?$string_output_adapter@_W@__crt_stdio_output@@V?$standard_base@_WV?$string_output_adapter@_W@__crt_stdio_output@@@2@@__crt_stdio_output@@AEAA_NI_N@Z 0000000180026af4     libucrt:output.obj
 0002:00009af4       $unwind$fesetenv           0000000180026af4     libucrt:fesetenv.obj
 0002:00009af4       $unwind$feholdexcept       0000000180026af4     libucrt:feholdexcept.obj
 0002:00009af4       $unwind$??0?$output_processor@_WV?$string_output_adapter@_W@__crt_stdio_output@@V?$standard_base@_WV?$string_output_adapter@_W@__crt_stdio_output@@@2@@__crt_stdio_output@@QEAA@AEBV?$string_output_adapter@_W@1@_KQEB_WQEAU__crt_locale_pointers@@QEAD@Z 0000000180026af4     libucrt:output.obj
 0002:00009af4       $unwind$initialize_pointers 0000000180026af4     libucrt:initialization.obj
 0002:00009af4       $unwind$fegetenv           0000000180026af4     libucrt:fegetenv.obj
 0002:00009af4       $unwind$uninitialize_allocated_memory 0000000180026af4     libucrt:initialization.obj
 0002:00009af4       $unwind$?type_case_integer@?$output_processor@_WV?$stream_output_adapter@_W@__crt_stdio_output@@V?$standard_base@_WV?$stream_output_adapter@_W@__crt_stdio_output@@@2@@__crt_stdio_output@@AEAA_NI_N@Z 0000000180026af4     libucrt:output.obj
 0002:00009af4       $unwind$??0?$output_processor@_WV?$stream_output_adapter@_W@__crt_stdio_output@@V?$standard_base@_WV?$stream_output_adapter@_W@__crt_stdio_output@@@2@@__crt_stdio_output@@QEAA@AEBV?$stream_output_adapter@_W@1@_KQEB_WQEAU__crt_locale_pointers@@QEAD@Z 0000000180026af4     libucrt:output.obj
 0002:00009af4       $unwind$??0length_error@std@@QEAA@AEBV01@@Z 0000000180026af4     libcpmt:xthrow.obj
 0002:00009af4       $unwind$__std_exception_destroy 0000000180026af4     libvcruntime:std_exception.obj
 0002:00009af4       $unwind$__raise_securityfailure 0000000180026af4     LIBCMT:gs_report.obj
 0002:00009af4       $unwind$__std_type_info_destroy_list 0000000180026af4     libvcruntime:std_type_info.obj
 0002:00009af4       $unwind$_malloc_base       0000000180026af4     libucrt:malloc_base.obj
 0002:00009af4       $unwind$__acrt_uninitialize_stdio 0000000180026af4     libucrt:_file.obj
 0002:00009af4       $unwind$_calloc_base       0000000180026af4     libucrt:calloc_base.obj
 0002:00009af4       $unwind$??0exception@std@@QEAA@AEBV01@@Z 0000000180026af4     libcpmt:xthrow.obj
 0002:00009af4       $unwind$__acrt_fp_strflt_to_string 0000000180026af4     libucrt:_fptostr.obj
 0002:00009af4       $unwind$??$message_box_wait_thread@_W@@YAKQEAX@Z 0000000180026af4     libucrt:crtmbox.obj
 0002:00009af4       $unwind$__vcrt_uninitialize 0000000180026af4     libvcruntime:initialization.obj
 0002:00009af4       $unwind$??0bad_array_new_length@std@@QEAA@AEBV01@@Z 0000000180026af4     LIBCMT:throw_bad_alloc.obj
 0002:00009af4       $unwind$__acrt_stdio_free_buffer_nolock 0000000180026af4     libucrt:_freebuf.obj
 0002:00009af4       $unwind$??2@YAPEAX_K@Z     0000000180026af4     LIBCMT:new_scalar.obj
 0002:00009af4       $unwind$__acrt_stdio_allocate_buffer_nolock 0000000180026af4     libucrt:_getbuf.obj
 0002:00009af4       $unwind$__acrt_update_multibyte_info 0000000180026af4     libucrt:locale_update.obj
 0002:00009af4       $unwind$??_Gtype_info@@UEAAPEAXI@Z 0000000180026af4     LIBCMT:std_type_info_static.obj
 0002:00009af4       $unwind$__acrt_update_locale_info 0000000180026af4     libucrt:locale_update.obj
 0002:00009af4       $unwind$__vcrt_initialize_locks 0000000180026af4     libvcruntime:locks.obj
 0002:00009af4       $unwind$??0bad_alloc@std@@QEAA@AEBV01@@Z 0000000180026af4     libcpmt:xthrow.obj
 0002:00009af4       $unwind$__vcrt_uninitialize_locks 0000000180026af4     libvcruntime:locks.obj
 0002:00009af4       $unwind$_setfpstatusword   0000000180026af4     libucrt:_fenvutils.obj
 0002:00009af4       $unwind$strcpy_s           0000000180026af4     libucrt:strcpy_s.obj
 0002:00009af4       $unwind$??0logic_error@std@@QEAA@AEBV01@@Z 0000000180026af4     libcpmt:xthrow.obj
 0002:00009af4       $unwind$__vcrt_freeptd     0000000180026af4     libvcruntime:per_thread_data.obj
 0002:00009af4       $unwind$wcscat_s           0000000180026af4     libucrt:wcscat_s.obj
 0002:00009af4       $unwind$wcscpy_s           0000000180026af4     libucrt:wcscpy_s.obj
 0002:00009af4       $unwind$??0out_of_range@std@@QEAA@AEBV01@@Z 0000000180026af4     libcpmt:xthrow.obj
 0002:00009afc       $unwind$?CloseColorReaderFunction@@YAXAEBV?$FunctionCallbackInfo@VValue@v8@@@Nan@@@Z 0000000180026afc     kinect2.obj
 0002:00009afc       $unwind$??$common_lseek_nolock@_J@@YA_JH_JH@Z 0000000180026afc     libucrt:lseek.obj
 0002:00009afc       $unwind$__vcrt_getptd_noexit 0000000180026afc     libvcruntime:per_thread_data.obj
 0002:00009afc       $unwind$__acrt_getptd_noexit 0000000180026afc     libucrt:per_thread_data.obj
 0002:00009afc       $unwind$?CloseInfraredReaderFunction@@YAXAEBV?$FunctionCallbackInfo@VValue@v8@@@Nan@@@Z 0000000180026afc     kinect2.obj
 0002:00009afc       $unwind$?type_case_Z@?$output_processor@_WV?$stream_output_adapter@_W@__crt_stdio_output@@V?$standard_base@_WV?$stream_output_adapter@_W@__crt_stdio_output@@@2@@__crt_stdio_output@@AEAA_NXZ 0000000180026afc     libucrt:output.obj
 0002:00009afc       $unwind$?CloseFunction@@YAXAEBV?$FunctionCallbackInfo@VValue@v8@@@Nan@@@Z 0000000180026afc     kinect2.obj
 0002:00009afc       $unwind$memcpy_s           0000000180026afc     libucrt:cfout.obj
 0002:00009afc       $unwind$?CloseRawDepthReaderFunction@@YAXAEBV?$FunctionCallbackInfo@VValue@v8@@@Nan@@@Z 0000000180026afc     kinect2.obj
 0002:00009afc       $unwind$_DllMainCRTStartup 0000000180026afc     LIBCMT:dll_dllmain.obj
 0002:00009afc       $unwind$?type_case_s@?$output_processor@_WV?$stream_output_adapter@_W@__crt_stdio_output@@V?$standard_base@_WV?$stream_output_adapter@_W@__crt_stdio_output@@@2@@__crt_stdio_output@@AEAA_NXZ 0000000180026afc     libucrt:output.obj
 0002:00009afc       $unwind$__acrt_stdio_flush_nolock 0000000180026afc     libucrt:fflush.obj
 0002:00009afc       $unwind$??R<lambda_ad1ced32f4ac17aa236e5ef05d6b3b7c>@@QEBAXXZ 0000000180026afc     libucrt:mbctype.obj
 0002:00009afc       $unwind$_RTC_Initialize    0000000180026afc     LIBCMT:_initsect_.obj
 0002:00009afc       $unwind$_RTC_Terminate     0000000180026afc     LIBCMT:_initsect_.obj
 0002:00009afc       $unwind$__acrt_LocaleNameToLCID 0000000180026afc     libucrt:winapi_thunks.obj
 0002:00009afc       $unwind$?type_case_n@?$output_processor@_WV?$stream_output_adapter@_W@__crt_stdio_output@@V?$standard_base@_WV?$stream_output_adapter@_W@__crt_stdio_output@@@2@@__crt_stdio_output@@AEAA_NXZ 0000000180026afc     libucrt:output.obj
 0002:00009afc       $unwind$?TraceLoggingRegister@__vcrt_trace_logging_provider@@YAJPEBU_TlgProvider_t@1@PEBU_GUID@@P6AX1KE_K2PEAU_EVENT_FILTER_DESCRIPTOR@@PEAX@Z4@Z 0000000180026afc     libvcruntime:telemetry.obj
 0002:00009afc       $unwind$?type_case_n@?$output_processor@_WV?$string_output_adapter@_W@__crt_stdio_output@@V?$standard_base@_WV?$string_output_adapter@_W@__crt_stdio_output@@@2@@__crt_stdio_output@@AEAA_NXZ 0000000180026afc     libucrt:output.obj
 0002:00009afc       $unwind$?CloseMultiSourceReaderFunction@@YAXAEBV?$FunctionCallbackInfo@VValue@v8@@@Nan@@@Z 0000000180026afc     kinect2.obj
 0002:00009afc       $unwind$__acrt_FlsSetValue 0000000180026afc     libucrt:winapi_thunks.obj
 0002:00009afc       $unwind$?assign@?$basic_string@DU?$char_traits@D@std@@V?$allocator@D@2@@std@@QEAAAEAV12@PEBD_K@Z 0000000180026afc     kinect2.obj
 0002:00009afc       $unwind$?type_case_s@?$output_processor@_WV?$string_output_adapter@_W@__crt_stdio_output@@V?$standard_base@_WV?$string_output_adapter@_W@__crt_stdio_output@@@2@@__crt_stdio_output@@AEAA_NXZ 0000000180026afc     libucrt:output.obj
 0002:00009afc       $unwind$_initterm_e        0000000180026afc     libucrt:initterm.obj
 0002:00009afc       $unwind$?CloseDepthReaderFunction@@YAXAEBV?$FunctionCallbackInfo@VValue@v8@@@Nan@@@Z 0000000180026afc     kinect2.obj
 0002:00009afc       $unwind$__vcrt_FlsSetValue 0000000180026afc     libvcruntime:winapi_downlevel.obj
 0002:00009afc       $unwind$__acrt_stdio_flush_and_write_narrow_nolock 0000000180026afc     libucrt:_flsbuf.obj
 0002:00009afc       $unwind$__acrt_stdio_flush_and_write_wide_nolock 0000000180026afc     libucrt:_flsbuf.obj
 0002:00009afc       $unwind$_exception_enabled 0000000180026afc     libucrt:libm_error.obj
 0002:00009afc       $unwind$?free_crt_array_internal@@YAXQEAPEBX_K@Z 0000000180026afc     libucrt:inittime.obj
 0002:00009afc       $unwind$__acrt_execute_uninitializers 0000000180026afc     libucrt:shared_initialization.obj
 0002:00009afc       $unwind$?CloseLongExposureInfraredReaderFunction@@YAXAEBV?$FunctionCallbackInfo@VValue@v8@@@Nan@@@Z 0000000180026afc     kinect2.obj
 0002:00009afc       $unwind$?type_case_Z@?$output_processor@_WV?$string_output_adapter@_W@__crt_stdio_output@@V?$standard_base@_WV?$string_output_adapter@_W@__crt_stdio_output@@@2@@__crt_stdio_output@@AEAA_NXZ 0000000180026afc     libucrt:output.obj
 0002:00009afc       $unwind$?CloseBodyReaderFunction@@YAXAEBV?$FunctionCallbackInfo@VValue@v8@@@Nan@@@Z 0000000180026afc     kinect2.obj
 0002:00009b0c       $unwind$?DepthProgress_@@YAXPEAUuv_async_s@@@Z 0000000180026b0c     kinect2.obj
 0002:00009b0c       $unwind$?__scrt_throw_std_bad_alloc@@YAXXZ 0000000180026b0c     LIBCMT:throw_bad_alloc.obj
 0002:00009b0c       $unwind$?RawDepthProgress_@@YAXPEAUuv_async_s@@@Z 0000000180026b0c     kinect2.obj
 0002:00009b0c       $unwind$__dcrt_lowio_initialize_console_output 0000000180026b0c     libucrt:initcon.obj
 0002:00009b0c       $unwind$_raise_exc         0000000180026b0c     libucrt:fpexcept.obj
 0002:00009b0c       $unwind$?LongExposureInfraredProgress_@@YAXPEAUuv_async_s@@@Z 0000000180026b0c     kinect2.obj
 0002:00009b0c       $unwind$_raise_excf        0000000180026b0c     libucrt:fpexcept.obj
 0002:00009b0c       $unwind$?ColorProgress_@@YAXPEAUuv_async_s@@@Z 0000000180026b0c     kinect2.obj
 0002:00009b0c       $unwind$?InfraredProgress_@@YAXPEAUuv_async_s@@@Z 0000000180026b0c     kinect2.obj
 0002:00009b0c       $unwind$?_Xout_of_range@std@@YAXPEBD@Z 0000000180026b0c     libcpmt:xthrow.obj
 0002:00009b0c       $unwind$?BodyProgress_@@YAXPEAUuv_async_s@@@Z 0000000180026b0c     kinect2.obj
 0002:00009b0c       $unwind$?_Xlength_error@std@@YAXPEBD@Z 0000000180026b0c     libcpmt:xthrow.obj
 0002:00009b0c       $unwind$?_Xbad_alloc@std@@YAXXZ 0000000180026b0c     libcpmt:xthrow.obj
 0002:00009b0c       $unwind$?__scrt_throw_std_bad_array_new_length@@YAXXZ 0000000180026b0c     LIBCMT:throw_bad_alloc.obj
 0002:00009b14       $unwind$?processColorFrameData@@YAJPEAUIColorFrame@@@Z 0000000180026b14     kinect2.obj
 0002:00009b20       $unwind$?LongExposureInfraredReaderThreadLoop@@YAXPEAX@Z 0000000180026b20     kinect2.obj
 0002:00009b20       $unwind$?ColorReaderThreadLoop@@YAXPEAX@Z 0000000180026b20     kinect2.obj
 0002:00009b20       $unwind$?DepthReaderThreadLoop@@YAXPEAX@Z 0000000180026b20     kinect2.obj
 0002:00009b20       $unwind$?BodyReaderThreadLoop@@YAXPEAX@Z 0000000180026b20     kinect2.obj
 0002:00009b20       $unwind$?RawDepthReaderThreadLoop@@YAXPEAX@Z 0000000180026b20     kinect2.obj
 0002:00009b20       $unwind$?InfraredReaderThreadLoop@@YAXPEAX@Z 0000000180026b20     kinect2.obj
 0002:00009b28       $chain$0$?ColorReaderThreadLoop@@YAXPEAX@Z 0000000180026b28     kinect2.obj
 0002:00009b3c       $chain$1$?ColorReaderThreadLoop@@YAXPEAX@Z 0000000180026b3c     kinect2.obj
 0002:00009b4c       $unwind$?OpenBodyReaderFunction@@YAXAEBV?$FunctionCallbackInfo@VValue@v8@@@Nan@@@Z 0000000180026b4c     kinect2.obj
 0002:00009b4c       $unwind$?OpenDepthReaderFunction@@YAXAEBV?$FunctionCallbackInfo@VValue@v8@@@Nan@@@Z 0000000180026b4c     kinect2.obj
 0002:00009b4c       $unwind$?OpenInfraredReaderFunction@@YAXAEBV?$FunctionCallbackInfo@VValue@v8@@@Nan@@@Z 0000000180026b4c     kinect2.obj
 0002:00009b4c       $unwind$?parse_int_from_format_string@?$output_processor@_WV?$stream_output_adapter@_W@__crt_stdio_output@@V?$standard_base@_WV?$stream_output_adapter@_W@__crt_stdio_output@@@2@@__crt_stdio_output@@AEAA_NQEAH@Z 0000000180026b4c     libucrt:output.obj
 0002:00009b4c       $unwind$?OpenRawDepthReaderFunction@@YAXAEBV?$FunctionCallbackInfo@VValue@v8@@@Nan@@@Z 0000000180026b4c     kinect2.obj
 0002:00009b4c       $unwind$?OpenColorReaderFunction@@YAXAEBV?$FunctionCallbackInfo@VValue@v8@@@Nan@@@Z 0000000180026b4c     kinect2.obj
 0002:00009b4c       $unwind$?OpenLongExposureInfraredReaderFunction@@YAXAEBV?$FunctionCallbackInfo@VValue@v8@@@Nan@@@Z 0000000180026b4c     kinect2.obj
 0002:00009b4c       $unwind$?parse_int_from_format_string@?$output_processor@_WV?$string_output_adapter@_W@__crt_stdio_output@@V?$standard_base@_WV?$string_output_adapter@_W@__crt_stdio_output@@@2@@__crt_stdio_output@@AEAA_NQEAH@Z 0000000180026b4c     libucrt:output.obj
 0002:00009b60       $unwind$??0out_of_range@std@@QEAA@PEBD@Z 0000000180026b60     libcpmt:xthrow.obj
 0002:00009b60       $unwind$?processLongExposureInfraredFrameData@@YAJPEAUILongExposureInfraredFrame@@@Z 0000000180026b60     kinect2.obj
 0002:00009b60       $unwind$?processInfraredFrameData@@YAJPEAUIInfraredFrame@@@Z 0000000180026b60     kinect2.obj
 0002:00009b60       $unwind$??0length_error@std@@QEAA@PEBD@Z 0000000180026b60     libcpmt:xthrow.obj
 0002:00009b60       $unwind$??$common_xtox_s@K_W@@YAHKQEA_W_KI_N@Z 0000000180026b60     libucrt:xtoa.obj
 0002:00009b60       $unwind$wcstol             0000000180026b60     libucrt:strtox.obj
 0002:00009b68       $chain$0$?processInfraredFrameData@@YAJPEAUIInfraredFrame@@@Z 0000000180026b68     kinect2.obj
 0002:00009b7c       $chain$1$?processInfraredFrameData@@YAJPEAUIInfraredFrame@@@Z 0000000180026b7c     kinect2.obj
 0002:00009b90       $chain$2$?processInfraredFrameData@@YAJPEAUIInfraredFrame@@@Z 0000000180026b90     kinect2.obj
 0002:00009ba0       $chain$3$?processInfraredFrameData@@YAJPEAUIInfraredFrame@@@Z 0000000180026ba0     kinect2.obj
 0002:00009bb0       $chain$0$?InfraredReaderThreadLoop@@YAXPEAX@Z 0000000180026bb0     kinect2.obj
 0002:00009bc4       $chain$1$?InfraredReaderThreadLoop@@YAXPEAX@Z 0000000180026bc4     kinect2.obj
 0002:00009bd4       $chain$0$?processLongExposureInfraredFrameData@@YAJPEAUILongExposureInfraredFrame@@@Z 0000000180026bd4     kinect2.obj
 0002:00009be8       $chain$1$?processLongExposureInfraredFrameData@@YAJPEAUILongExposureInfraredFrame@@@Z 0000000180026be8     kinect2.obj
 0002:00009bfc       $chain$2$?processLongExposureInfraredFrameData@@YAJPEAUILongExposureInfraredFrame@@@Z 0000000180026bfc     kinect2.obj
 0002:00009c0c       $chain$3$?processLongExposureInfraredFrameData@@YAJPEAUILongExposureInfraredFrame@@@Z 0000000180026c0c     kinect2.obj
 0002:00009c1c       $chain$0$?LongExposureInfraredReaderThreadLoop@@YAXPEAX@Z 0000000180026c1c     kinect2.obj
 0002:00009c30       $chain$1$?LongExposureInfraredReaderThreadLoop@@YAXPEAX@Z 0000000180026c30     kinect2.obj
 0002:00009c40       $unwind$?processDepthFrameData@@YAJPEAUIDepthFrame@@@Z 0000000180026c40     kinect2.obj
 0002:00009c4c       $chain$0$?DepthReaderThreadLoop@@YAXPEAX@Z 0000000180026c4c     kinect2.obj
 0002:00009c60       $chain$1$?DepthReaderThreadLoop@@YAXPEAX@Z 0000000180026c60     kinect2.obj
 0002:00009c70       $unwind$?processRawDepthFrameData@@YAJPEAUIDepthFrame@@@Z 0000000180026c70     kinect2.obj
 0002:00009c7c       $chain$0$?RawDepthReaderThreadLoop@@YAXPEAX@Z 0000000180026c7c     kinect2.obj
 0002:00009c90       $chain$1$?RawDepthReaderThreadLoop@@YAXPEAX@Z 0000000180026c90     kinect2.obj
 0002:00009ca0       $unwind$?getV8BodyFrame_@@YA?AV?$Local@VObject@v8@@@v8@@XZ 0000000180026ca0     kinect2.obj
 0002:00009cbc       $unwind$?processBodyFrameData@@YAJPEAUIBodyFrame@@@Z 0000000180026cbc     kinect2.obj
 0002:00009cd4       $chain$11$?processBodyFrameData@@YAJPEAUIBodyFrame@@@Z 0000000180026cd4     kinect2.obj
 0002:00009d14       $chain$12$?processBodyFrameData@@YAJPEAUIBodyFrame@@@Z 0000000180026d14     kinect2.obj
 0002:00009d24       $chain$2$?BodyReaderThreadLoop@@YAXPEAX@Z 0000000180026d24     kinect2.obj
 0002:00009d40       $chain$3$?BodyReaderThreadLoop@@YAXPEAX@Z 0000000180026d40     kinect2.obj
 0002:00009d50       $unwind$?MultiSourceProgress_@@YAXPEAUuv_async_s@@@Z 0000000180026d50     kinect2.obj
 0002:00009d5c       $chain$1$?MultiSourceProgress_@@YAXPEAUuv_async_s@@@Z 0000000180026d5c     kinect2.obj
 0002:00009d74       $chain$5$?MultiSourceProgress_@@YAXPEAUuv_async_s@@@Z 0000000180026d74     kinect2.obj
 0002:00009d94       $chain$7$?MultiSourceProgress_@@YAXPEAUuv_async_s@@@Z 0000000180026d94     kinect2.obj
 0002:00009dac       $chain$8$?MultiSourceProgress_@@YAXPEAUuv_async_s@@@Z 0000000180026dac     kinect2.obj
 0002:00009dbc       $chain$9$?MultiSourceProgress_@@YAXPEAUuv_async_s@@@Z 0000000180026dbc     kinect2.obj
 0002:00009dd0       $chain$10$?MultiSourceProgress_@@YAXPEAUuv_async_s@@@Z 0000000180026dd0     kinect2.obj
 0002:00009de0       $unwind$?MultiSourceReaderThreadLoop@@YAXPEAX@Z 0000000180026de0     kinect2.obj
 0002:00009dec       $chain$8$?MultiSourceReaderThreadLoop@@YAXPEAX@Z 0000000180026dec     kinect2.obj
 0002:00009e20       $chain$9$?MultiSourceReaderThreadLoop@@YAXPEAX@Z 0000000180026e20     kinect2.obj
 0002:00009e30       $unwind$?OpenMultiSourceReaderFunction@@YAXAEBV?$FunctionCallbackInfo@VValue@v8@@@Nan@@@Z 0000000180026e30     kinect2.obj
 0002:00009e44       $unwind$?TrackPixelsForBodyIndicesFunction@@YAXAEBV?$FunctionCallbackInfo@VValue@v8@@@Nan@@@Z 0000000180026e44     kinect2.obj
 0002:00009e50       $chain$1$?TrackPixelsForBodyIndicesFunction@@YAXAEBV?$FunctionCallbackInfo@VValue@v8@@@Nan@@@Z 0000000180026e50     kinect2.obj
 0002:00009e68       $chain$2$?TrackPixelsForBodyIndicesFunction@@YAXAEBV?$FunctionCallbackInfo@VValue@v8@@@Nan@@@Z 0000000180026e68     kinect2.obj
 0002:00009e78       $unwind$?Init@@YAXV?$Local@VObject@v8@@@v8@@@Z 0000000180026e78     kinect2.obj
 0002:00009e8c       $unwind$__std_exception_copy 0000000180026e8c     libvcruntime:std_exception.obj
 0002:00009e8c       $unwind$?initialize_stdio_handles_nolock@@YAXXZ 0000000180026e8c     libucrt:ioinit.obj
 0002:00009e8c       $unwind$?assign@?$basic_string@DU?$char_traits@D@std@@V?$allocator@D@2@@std@@QEAAAEAV12@AEBV12@_K1@Z 0000000180026e8c     kinect2.obj
 0002:00009e8c       $unwind$_free_osfhnd       0000000180026e8c     libucrt:osfinfo.obj
 0002:00009ea0       $unwind$??_Gout_of_range@std@@UEAAPEAXI@Z 0000000180026ea0     libcpmt:xthrow.obj
 0002:00009ea0       $unwind$??_Gbad_alloc@std@@UEAAPEAXI@Z 0000000180026ea0     libcpmt:xthrow.obj
 0002:00009ea0       $unwind$??_Glength_error@std@@UEAAPEAXI@Z 0000000180026ea0     libcpmt:xthrow.obj
 0002:00009ea0       $unwind$__acrt_invoke_user_matherr 0000000180026ea0     libucrt:matherr.obj
 0002:00009ea0       $unwind$strncpy_s          0000000180026ea0     libucrt:strncpy_s.obj
 0002:00009ea0       $unwind$?try_cor_exit_process@@YAXI@Z 0000000180026ea0     libucrt:exit.obj
 0002:00009ea0       $unwind$?erase@?$basic_string@DU?$char_traits@D@std@@V?$allocator@D@2@@std@@QEAAAEAV12@_K0@Z 0000000180026ea0     kinect2.obj
 0002:00009ea0       $unwind$__acrt_uninitialize_lowio 0000000180026ea0     libucrt:ioinit.obj
 0002:00009ea0       $unwind$?force_decimal_point@__crt_stdio_output@@YAXPEADQEAU__crt_locale_pointers@@@Z 0000000180026ea0     libucrt:output.obj
 0002:00009ea0       $unwind$_realloc_base      0000000180026ea0     libucrt:realloc_base.obj
 0002:00009ea0       $unwind$?internal_isupper_l@@YA_NHQEAU__crt_locale_pointers@@@Z 0000000180026ea0     libucrt:tolower_toupper.obj
 0002:00009ea0       $unwind$__vcrt_EventUnregister 0000000180026ea0     libvcruntime:winapi_downlevel.obj
 0002:00009ea0       $unwind$__acrt_FlsGetValue 0000000180026ea0     libucrt:winapi_thunks.obj
 0002:00009ea0       $unwind$??_Glogic_error@std@@UEAAPEAXI@Z 0000000180026ea0     libcpmt:xthrow.obj
 0002:00009ea0       $unwind$wcsncat_s          0000000180026ea0     libucrt:wcsncat_s.obj
 0002:00009ea0       $unwind$__acrt_FlsFree     0000000180026ea0     libucrt:winapi_thunks.obj
 0002:00009ea0       $unwind$??$common_initialize_environment_nolock@D@@YAHXZ 0000000180026ea0     libucrt:environment_initialization.obj
 0002:00009ea0       $unwind$__acrt_FlsAlloc    0000000180026ea0     libucrt:winapi_thunks.obj
 0002:00009ea0       $unwind$_callnewh          0000000180026ea0     libucrt:new_handler.obj
 0002:00009ea0       $unwind$??0_LocaleUpdate@@QEAA@QEAU__crt_locale_pointers@@@Z 0000000180026ea0     libucrt:stricmp.obj
 0002:00009ea0       $unwind$_fclose_nolock     0000000180026ea0     libucrt:fclose.obj
 0002:00009ea0       $unwind$__acrt_get_parent_window 0000000180026ea0     libucrt:winapi_thunks.obj
 0002:00009ea0       $unwind$??_Gbad_array_new_length@std@@UEAAPEAXI@Z 0000000180026ea0     LIBCMT:throw_bad_alloc.obj
 0002:00009ea0       $unwind$__acrt_errno_map_os_error 0000000180026ea0     libucrt:errno.obj
 0002:00009ea0       $unwind$__vcrt_FlsGetValue 0000000180026ea0     libvcruntime:winapi_downlevel.obj
 0002:00009ea0       $unwind$_updatetlocinfoEx_nolock 0000000180026ea0     libucrt:locale_refcounting.obj
 0002:00009ea0       $unwind$??_Gexception@std@@UEAAPEAXI@Z 0000000180026ea0     libcpmt:xthrow.obj
 0002:00009ea0       $unwind$__vcrt_FlsFree     0000000180026ea0     libvcruntime:winapi_downlevel.obj
 0002:00009ea0       $unwind$__acrt_stdio_begin_temporary_buffering_nolock 0000000180026ea0     libucrt:_sftbuf.obj
 0002:00009ea0       $unwind$__vcrt_FlsAlloc    0000000180026ea0     libvcruntime:winapi_downlevel.obj
 0002:00009ea0       $unwind$?replace_current_thread_locale_nolock@@YAXQEAU__acrt_ptd@@QEAU__crt_locale_data@@@Z 0000000180026ea0     libucrt:per_thread_data.obj
 0002:00009ea0       $unwind$_close_nolock      0000000180026ea0     libucrt:close.obj
 0002:00009ea0       $unwind$??$common_xtox@K_W@@YAHKQEA_W_KI_N@Z 0000000180026ea0     libucrt:xtoa.obj
 0002:00009ea0       $unwind$__acrt_getptd      0000000180026ea0     libucrt:per_thread_data.obj
 0002:00009eac       $unwind$?_Copy@?$basic_string@DU?$char_traits@D@std@@V?$allocator@D@2@@std@@QEAAX_K0@Z 0000000180026eac     kinect2.obj
 0002:00009ec0       $unwind$??$_Integral_to_string@D_K@std@@YA?AV?$basic_string@DU?$char_traits@D@std@@V?$allocator@D@2@@0@_K@Z 0000000180026ec0     kinect2.obj
 0002:00009ed0       $xdatasym                  0000000180026ed0     LIBCMT:_amdsecgs_.obj
 0002:00009ed4       $unwind$__report_securityfailure 0000000180026ed4     LIBCMT:gs_report.obj
 0002:00009edc       $unwind$__report_gsfailure 0000000180026edc     LIBCMT:gs_report.obj
 0002:00009edc       $unwind$_putwch_nolock     0000000180026edc     libucrt:putwch.obj
 0002:00009ee4       $unwind$capture_current_context 0000000180026ee4     LIBCMT:gs_report.obj
 0002:00009ef0       $unwind$capture_previous_context 0000000180026ef0     LIBCMT:gs_report.obj
 0002:00009efc       $unwind$__scrt_is_nonwritable_in_current_image 0000000180026efc     LIBCMT:utility.obj
 0002:00009f1c       $unwind$__scrt_is_nonwritable_in_current_image$filt$0 0000000180026f1c     LIBCMT:utility.obj
 0002:00009f24       $unwind$__scrt_initialize_onexit_tables 0000000180026f24     LIBCMT:utility.obj
 0002:00009f30       $unwind$?dllmain_crt_process_attach@@YAHQEAUHINSTANCE__@@QEAX@Z 0000000180026f30     LIBCMT:dll_dllmain.obj
 0002:00009f5c       $unwind$?dllmain_crt_process_detach@@YAH_N@Z 0000000180026f5c     LIBCMT:dll_dllmain.obj
 0002:00009f84       $unwind$?dllmain_dispatch@@YAHQEAUHINSTANCE__@@KQEAX@Z 0000000180026f84     LIBCMT:dll_dllmain.obj
 0002:00009fac       $unwind$?filt$0@?0??dllmain_dispatch@@YAHQEAUHINSTANCE__@@KQEAX@Z@4HA 0000000180026fac     LIBCMT:dll_dllmain.obj
 0002:00009fb4       $unwind$__isa_available_init 0000000180026fb4     LIBCMT:_cpu_disp_.obj
 0002:00009fc0       $unwind$__scrt_fastfail    0000000180026fc0     LIBCMT:utility_desktop.obj
 0002:00009fd0       $unwind$__security_init_cookie 0000000180026fd0     LIBCMT:gs_support.obj
 0002:00009fe0       $xdatasym                  0000000180026fe0     LIBCMT:_guard_dispatch_.obj
 0002:00009fe8       $xdatasym                  0000000180026fe8     libvcruntime:memcpy.obj
 0002:00009fec       $unwind$_CxxThrowException 0000000180026fec     libvcruntime:throw.obj
 0002:0000a000       $unwind$__C_specific_handler 0000000180027000     libvcruntime:_chandler_.obj
 0002:0000a01c       $unwind$__telemetry_main_return_trigger 000000018002701c     libvcruntime:telemetry.obj
 0002:0000a01c       $unwind$__telemetry_main_invoke_trigger 000000018002701c     libvcruntime:telemetry.obj
 0002:0000a034       $unwind$?_TlgEnableCallback@__vcrt_trace_logging_provider@@YAXPEBU_GUID@@KE_K1PEAU_EVENT_FILTER_DESCRIPTOR@@PEAX@Z 0000000180027034     libvcruntime:telemetry.obj
 0002:0000a050       $xdatasym                  0000000180027050     libvcruntime:memset.obj
 0002:0000a054       $unwind$__vcrt_initialize_winapi_thunks 0000000180027054     libvcruntime:winapi_downlevel.obj
 0002:0000a054       $unwind$__acrt_initialize_winapi_thunks 0000000180027054     libucrt:winapi_thunks.obj
 0002:0000a05c       $unwind$__acrt_stdio_end_temporary_buffering_nolock 000000018002705c     libucrt:_sftbuf.obj
 0002:0000a05c       $unwind$__vcrt_uninitialize_winapi_thunks 000000018002705c     libvcruntime:winapi_downlevel.obj
 0002:0000a068       $xdatasym                  0000000180027068     libvcruntime:_jmpuwind_.obj
 0002:0000a07c       $unwind$fwprintf           000000018002707c     libucrt:assert.obj
 0002:0000a088       $unwind$swprintf           0000000180027088     libucrt:assert.obj
 0002:0000a098       $unwind$??$common_assert_to_stderr@_W@@YAXQEB_W0I@Z 0000000180027098     libucrt:assert.obj
 0002:0000a0b4       $unwind$??$common_assert_to_message_box@_W@@YAXQEB_W0IQEAX@Z 00000001800270b4     libucrt:assert.obj
 0002:0000a0d0       $unwind$??$common_assert_to_message_box_build_string@_W@@YAXQEA_W_KQEB_W2IQEAX@Z 00000001800270d0     libucrt:assert.obj
 0002:0000a0f0       $unwind$__acrt_call_reportfault 00000001800270f0     libucrt:invalid_parameter.obj
 0002:0000a110       $unwind$_invalid_parameter 0000000180027110     libucrt:invalid_parameter.obj
 0002:0000a110       $unwind$__vcrt_EventWriteTransfer 0000000180027110     libvcruntime:winapi_downlevel.obj
 0002:0000a128       $unwind$_query_new_handler 0000000180027128     libucrt:new_handler.obj
 0002:0000a148       $unwind$?common_exit@@YAXHW4_crt_exit_cleanup_mode@@W4_crt_exit_return_mode@@@Z 0000000180027148     libucrt:exit.obj
 0002:0000a188       $unwind$_configure_narrow_argv 0000000180027188     libucrt:argv_parsing.obj
 0002:0000a19c       $unwind$??R<lambda_4e60a939b0d047cfe11ddc22648dfba9>@@QEBAHXZ 000000018002719c     libucrt:onexit.obj
 0002:0000a19c       $unwind$??$parse_command_line@D@@YAXPEADPEAPEAD0PEA_K2@Z 000000018002719c     libucrt:argv_parsing.obj
 0002:0000a1b8       $unwind$??$free_environment@_W@@YAXQEAPEA_W@Z 00000001800271b8     libucrt:environment_initialization.obj
 0002:0000a1b8       $unwind$??$free_environment@D@@YAXQEAPEAD@Z 00000001800271b8     libucrt:environment_initialization.obj
 0002:0000a1c4       $unwind$??$create_environment@D@@YAQEAPEADQEAD@Z 00000001800271c4     libucrt:environment_initialization.obj
 0002:0000a1dc       $unwind$_register_onexit_function 00000001800271dc     libucrt:onexit.obj
 0002:0000a1e4       $unwind$_execute_onexit_table 00000001800271e4     libucrt:onexit.obj
 0002:0000a1ec       $unwind$??$?RV<lambda_b8c45f8f788dd370798f47cfe8ac3a86>@@AEAV<lambda_4e60a939b0d047cfe11ddc22648dfba9>@@V<lambda_332c3edc96d0294ec56c57d38c1cdfd5>@@@?$__crt_seh_guarded_call@H@@QEAAH$$QEAV<lambda_b8c45f8f788dd370798f47cfe8ac3a86>@@AEAV<lambda_4e60a939b0d047cfe11ddc22648dfba9>@@$$QEAV<lambda_332c3edc96d0294ec56c57d38c1cdfd5>@@@Z 00000001800271ec     libucrt:onexit.obj
 0002:0000a210       $unwind$??$?RV<lambda_e24bbb7b643b32fcea6fa61b31d4c984>@@AEAV<lambda_275893d493268fdec8709772e3fcec0e>@@V<lambda_9d71df4d7cf3f480f8d633942495c3b0>@@@?$__crt_seh_guarded_call@H@@QEAAH$$QEAV<lambda_e24bbb7b643b32fcea6fa61b31d4c984>@@AEAV<lambda_275893d493268fdec8709772e3fcec0e>@@$$QEAV<lambda_9d71df4d7cf3f480f8d633942495c3b0>@@@Z 0000000180027210     libucrt:onexit.obj
 0002:0000a240       $unwind$terminate          0000000180027240     libucrt:terminate.obj
 0002:0000a260       $unwind$__stdio_common_vfwprintf 0000000180027260     libucrt:output.obj
 0002:0000a268       $unwind$__stdio_common_vswprintf 0000000180027268     libucrt:output.obj
 0002:0000a28c       $unwind$?write_string@?$stream_output_adapter@_W@__crt_stdio_output@@QEBAXQEB_WHQEAH1@Z 000000018002728c     libucrt:output.obj
 0002:0000a2a4       $unwind$?process@?$output_processor@_WV?$stream_output_adapter@_W@__crt_stdio_output@@V?$standard_base@_WV?$stream_output_adapter@_W@__crt_stdio_output@@@2@@__crt_stdio_output@@QEAAHXZ 00000001800272a4     libucrt:output.obj
 0002:0000a2bc       $unwind$?state_case_type@?$output_processor@_WV?$stream_output_adapter@_W@__crt_stdio_output@@V?$standard_base@_WV?$stream_output_adapter@_W@__crt_stdio_output@@@2@@__crt_stdio_output@@AEAA_NXZ 00000001800272bc     libucrt:output.obj
 0002:0000a2bc       $unwind$?state_case_type@?$output_processor@_WV?$string_output_adapter@_W@__crt_stdio_output@@V?$standard_base@_WV?$string_output_adapter@_W@__crt_stdio_output@@@2@@__crt_stdio_output@@AEAA_NXZ 00000001800272bc     libucrt:output.obj
 0002:0000a2e0       $unwind$?write_stored_string_tchar@?$output_processor@_WV?$stream_output_adapter@_W@__crt_stdio_output@@V?$standard_base@_WV?$stream_output_adapter@_W@__crt_stdio_output@@@2@@__crt_stdio_output@@AEAA_N_W@Z 00000001800272e0     libucrt:output.obj
 0002:0000a2f4       $unwind$??R<lambda_dd75445284c072d0bd3768540cc698fa>@@QEBAHXZ 00000001800272f4     libucrt:output.obj
 0002:0000a310       $unwind$?type_case_a@?$output_processor@_WV?$string_output_adapter@_W@__crt_stdio_output@@V?$standard_base@_WV?$string_output_adapter@_W@__crt_stdio_output@@@2@@__crt_stdio_output@@AEAA_NXZ 0000000180027310     libucrt:output.obj
 0002:0000a310       $unwind$?type_case_a@?$output_processor@_WV?$stream_output_adapter@_W@__crt_stdio_output@@V?$standard_base@_WV?$stream_output_adapter@_W@__crt_stdio_output@@@2@@__crt_stdio_output@@AEAA_NXZ 0000000180027310     libucrt:output.obj
 0002:0000a320       $unwind$?write_stored_string_tchar@?$output_processor@_WV?$string_output_adapter@_W@__crt_stdio_output@@V?$standard_base@_WV?$string_output_adapter@_W@__crt_stdio_output@@@2@@__crt_stdio_output@@AEAA_N_W@Z 0000000180027320     libucrt:output.obj
 0002:0000a334       $unwind$??$write_multiple_characters@V?$stream_output_adapter@_W@__crt_stdio_output@@D@__crt_stdio_output@@YAXAEBV?$stream_output_adapter@_W@0@DHQEAH@Z 0000000180027334     libucrt:output.obj
 0002:0000a34c       $unwind$??$write_multiple_characters@V?$string_output_adapter@_W@__crt_stdio_output@@D@__crt_stdio_output@@YAXAEBV?$string_output_adapter@_W@0@DHQEAH@Z 000000018002734c     libucrt:output.obj
 0002:0000a358       $unwind$??$type_case_integer_parse_into_buffer@_K@?$output_processor@_WV?$string_output_adapter@_W@__crt_stdio_output@@V?$standard_base@_WV?$string_output_adapter@_W@__crt_stdio_output@@@2@@__crt_stdio_output@@AEAAX_KI_N@Z 0000000180027358     libucrt:output.obj
 0002:0000a358       $unwind$??$type_case_integer_parse_into_buffer@I@?$output_processor@_WV?$string_output_adapter@_W@__crt_stdio_output@@V?$standard_base@_WV?$string_output_adapter@_W@__crt_stdio_output@@@2@@__crt_stdio_output@@AEAAXII_N@Z 0000000180027358     libucrt:output.obj
 0002:0000a358       $unwind$??$type_case_integer_parse_into_buffer@I@?$output_processor@_WV?$stream_output_adapter@_W@__crt_stdio_output@@V?$standard_base@_WV?$stream_output_adapter@_W@__crt_stdio_output@@@2@@__crt_stdio_output@@AEAAXII_N@Z 0000000180027358     libucrt:output.obj
 0002:0000a358       $unwind$??$type_case_integer_parse_into_buffer@_K@?$output_processor@_WV?$stream_output_adapter@_W@__crt_stdio_output@@V?$standard_base@_WV?$stream_output_adapter@_W@__crt_stdio_output@@@2@@__crt_stdio_output@@AEAAX_KI_N@Z 0000000180027358     libucrt:output.obj
 0002:0000a360       $unwind$??$?RV<lambda_7b91131dde12e1c3dfc74ff76b3f2eac>@@AEAV<lambda_dd75445284c072d0bd3768540cc698fa>@@V<lambda_16bc4ecb55b4718497c16bceaea2ceaf>@@@?$__crt_seh_guarded_call@H@@QEAAH$$QEAV<lambda_7b91131dde12e1c3dfc74ff76b3f2eac>@@AEAV<lambda_dd75445284c072d0bd3768540cc698fa>@@$$QEAV<lambda_16bc4ecb55b4718497c16bceaea2ceaf>@@@Z 0000000180027360     libucrt:output.obj
 0002:0000a384       $unwind$??$parse_integer@KV?$c_string_character_source@_W@__crt_strtox@@@__crt_strtox@@YAKQEAU__crt_locale_pointers@@V?$c_string_character_source@_W@0@H_N@Z 0000000180027384     libucrt:atox.obj
 0002:0000a3a0       $unwind$fflush             00000001800273a0     libucrt:fflush.obj
 0002:0000a3c4       $unwind$common_flush_all   00000001800273c4     libucrt:fflush.obj
 0002:0000a400       $unwind$setvbuf            0000000180027400     libucrt:setvbuf.obj
 0002:0000a408       $unwind$?type_case_c_tchar@?$output_processor@_WV?$string_output_adapter@_W@__crt_stdio_output@@V?$standard_base@_WV?$string_output_adapter@_W@__crt_stdio_output@@@2@@__crt_stdio_output@@AEAA_N_W@Z 0000000180027408     libucrt:output.obj
 0002:0000a408       $unwind$?type_case_c_tchar@?$output_processor@_WV?$stream_output_adapter@_W@__crt_stdio_output@@V?$standard_base@_WV?$stream_output_adapter@_W@__crt_stdio_output@@@2@@__crt_stdio_output@@AEAA_N_W@Z 0000000180027408     libucrt:output.obj
 0002:0000a408       $unwind$??R<lambda_b721fa326cdb32351d23dfa67958c160>@@QEBAHXZ 0000000180027408     libucrt:setvbuf.obj
 0002:0000a418       $unwind$??$?RV<lambda_7a5ef57ff966f610505f1d28a3d40618>@@AEAV<lambda_b721fa326cdb32351d23dfa67958c160>@@V<lambda_5e0fb27672408a07956fe59e48ccb2aa>@@@?$__crt_seh_guarded_call@H@@QEAAH$$QEAV<lambda_7a5ef57ff966f610505f1d28a3d40618>@@AEAV<lambda_b721fa326cdb32351d23dfa67958c160>@@$$QEAV<lambda_5e0fb27672408a07956fe59e48ccb2aa>@@@Z 0000000180027418     libucrt:setvbuf.obj
 0002:0000a43c       $unwind$__acrt_get_sigabrt_handler 000000018002743c     libucrt:signal.obj
 0002:0000a444       $unwind$raise              0000000180027444     libucrt:signal.obj
 0002:0000a470       $unwind$??$?RV<lambda_c36588078e9f5dfd39652860aa6b3aaf>@@AEAV<lambda_ec61778202f4f5fc7e7711acc23c3bca>@@V<lambda_dc9d2797ccde5d239b4a0efae8ebd7db>@@@?$__crt_seh_guarded_call@P6AXH@Z@@QEAAP6AXH@Z$$QEAV<lambda_c36588078e9f5dfd39652860aa6b3aaf>@@AEAV<lambda_ec61778202f4f5fc7e7711acc23c3bca>@@$$QEAV<lambda_dc9d2797ccde5d239b4a0efae8ebd7db>@@@Z 0000000180027470     libucrt:signal.obj
 0002:0000a494       $unwind$?construct_ptd_array@@YAXQEAU__acrt_ptd@@@Z 0000000180027494     libucrt:per_thread_data.obj
 0002:0000a49c       $unwind$?destroy_ptd_array@@YAXQEAU__acrt_ptd@@@Z 000000018002749c     libucrt:per_thread_data.obj
 0002:0000a4a4       $unwind$??$?RV<lambda_72d1df2b273a38828b1ce30cbf4cdab5>@@AEAV<lambda_876a65b173b8412d3a47c70a915b0cf4>@@V<lambda_41932305e351933ebe8f8be3ed8bb5dc>@@@?$__crt_seh_guarded_call@X@@QEAAX$$QEAV<lambda_72d1df2b273a38828b1ce30cbf4cdab5>@@AEAV<lambda_876a65b173b8412d3a47c70a915b0cf4>@@$$QEAV<lambda_41932305e351933ebe8f8be3ed8bb5dc>@@@Z 00000001800274a4     libucrt:per_thread_data.obj
 0002:0000a4c8       $unwind$??$?RV<lambda_5e887d1dcbef67a5eb4283622ba103bf>@@AEAV<lambda_4466841279450cc726390878d4a41900>@@V<lambda_341c25c0346d94847f1f3c463c57e077>@@@?$__crt_seh_guarded_call@X@@QEAAX$$QEAV<lambda_5e887d1dcbef67a5eb4283622ba103bf>@@AEAV<lambda_4466841279450cc726390878d4a41900>@@$$QEAV<lambda_341c25c0346d94847f1f3c463c57e077>@@@Z 00000001800274c8     libucrt:per_thread_data.obj
 0002:0000a4ec       $unwind$??$?RV<lambda_46352004c1216016012b18bd6f87e700>@@AEAV<lambda_3bd07e1a1191394380780325891bf33f>@@V<lambda_334532d3f185bcaa59b5be82d7d22bff>@@@?$__crt_seh_guarded_call@X@@QEAAX$$QEAV<lambda_46352004c1216016012b18bd6f87e700>@@AEAV<lambda_3bd07e1a1191394380780325891bf33f>@@$$QEAV<lambda_334532d3f185bcaa59b5be82d7d22bff>@@@Z 00000001800274ec     libucrt:per_thread_data.obj
 0002:0000a510       $unwind$??$?RV<lambda_fb3a7dec4e47f37f22dae91bb15c9095>@@AEAV<lambda_698284760c8add0bfb0756c19673e34b>@@V<lambda_dfb8eca1e75fef3034a8fb18dd509707>@@@?$__crt_seh_guarded_call@X@@QEAAX$$QEAV<lambda_fb3a7dec4e47f37f22dae91bb15c9095>@@AEAV<lambda_698284760c8add0bfb0756c19673e34b>@@$$QEAV<lambda_dfb8eca1e75fef3034a8fb18dd509707>@@@Z 0000000180027510     libucrt:per_thread_data.obj
 0002:0000a534       $unwind$_tolower_l         0000000180027534     libucrt:tolower_toupper.obj
 0002:0000a544       $unwind$__acrt_uninitialize_locale 0000000180027544     libucrt:wsetlocale.obj
 0002:0000a564       $unwind$__acrt_MessageBoxW 0000000180027564     libucrt:winapi_thunks.obj
 0002:0000a564       $unwind$__vcrt_EventRegister 0000000180027564     libvcruntime:winapi_downlevel.obj
 0002:0000a564       $unwind$_initterm          0000000180027564     libucrt:initterm.obj
 0002:0000a564       $unwind$?process@?$output_processor@_WV?$string_output_adapter@_W@__crt_stdio_output@@V?$standard_base@_WV?$string_output_adapter@_W@__crt_stdio_output@@@2@@__crt_stdio_output@@QEAAHXZ 0000000180027564     libucrt:output.obj
 0002:0000a564       $unwind$__vcrt_EventSetInformation 0000000180027564     libvcruntime:winapi_downlevel.obj
 0002:0000a564       $unwind$__acrt_initialize_stdio 0000000180027564     libucrt:_file.obj
 0002:0000a57c       $unwind$__acrt_is_interactive 000000018002757c     libucrt:winapi_thunks.obj
 0002:0000a590       $unwind$iswctype           0000000180027590     libucrt:iswctype.obj
 0002:0000a590       $unwind$__acrt_is_packaged_app 0000000180027590     libucrt:winapi_thunks.obj
 0002:0000a59c       $unwind$?write_string@?$string_output_adapter@_W@__crt_stdio_output@@QEBAXQEB_WHQEAH1@Z 000000018002759c     libucrt:output.obj
 0002:0000a59c       $unwind$?try_get_function@@YAPEAXW4function_id@?A0x63058377@@QEBDQEBW4module_id@2@2@Z 000000018002759c     libucrt:winapi_thunks.obj
 0002:0000a59c       $unwind$?try_get_function@@YAPEAXW4function_id@?A0x49c8dc86@@QEBDQEBW4module_id@2@2@Z 000000018002759c     libvcruntime:winapi_downlevel.obj
 0002:0000a5b8       $unwind$??$common_expand_argv_wildcards@D@@YAHQEAPEADQEAPEAPEAD@Z 00000001800275b8     libucrt:argv_wildcards.obj
 0002:0000a5d0       $unwind$_wassert           00000001800275d0     libucrt:assert.obj
 0002:0000a5d0       $unwind$_seh_filter_exe    00000001800275d0     libucrt:exception_filter.obj
 0002:0000a5d0       $unwind$?setSBCS@@YAXPEAU__crt_multibyte_data@@@Z 00000001800275d0     libucrt:mbctype.obj
 0002:0000a5d0       $unwind$__vcrt_InitializeCriticalSectionEx 00000001800275d0     libvcruntime:winapi_downlevel.obj
 0002:0000a5d0       $unwind$__scrt_dllmain_exception_filter 00000001800275d0     LIBCMT:utility.obj
 0002:0000a5d0       $unwind$??$ensure_buffer_is_big_enough@D@formatting_buffer@__crt_stdio_output@@QEAA_N_K@Z 00000001800275d0     libucrt:output.obj
 0002:0000a5d0       $unwind$?dllmain_raw@@YAHQEAUHINSTANCE__@@KQEAX@Z 00000001800275d0     LIBCMT:dll_dllmain.obj
 0002:0000a5d0       $unwind$__acrt_execute_initializers 00000001800275d0     libucrt:shared_initialization.obj
 0002:0000a5d0       $unwind$__acrt_InitializeCriticalSectionEx 00000001800275d0     libucrt:winapi_thunks.obj
 0002:0000a5d0       $unwind$__acrt_lowio_create_handle_array 00000001800275d0     libucrt:osfinfo.obj
 0002:0000a5d0       $unwind$?expand_if_necessary@?$argument_list@D@?A0xca0879c4@@AEAAHXZ 00000001800275d0     libucrt:argv_wildcards.obj
 0002:0000a5d0       $unwind$_recalloc_base     00000001800275d0     libucrt:recalloc.obj
 0002:0000a5d0       $unwind$__acrt_free_locale 00000001800275d0     libucrt:locale_refcounting.obj
 0002:0000a5e4       $unwind$??$copy_and_add_argument_to_buffer@D@@YAHQEBD0_KAEAV?$argument_list@D@?A0xca0879c4@@@Z 00000001800275e4     libucrt:argv_wildcards.obj
 0002:0000a600       $unwind$??$expand_argument_wildcards@D@@YAHQEAD0AEAV?$argument_list@D@?A0xca0879c4@@@Z 0000000180027600     libucrt:argv_wildcards.obj
 0002:0000a620       $unwind$__acrt_update_thread_multibyte_data 0000000180027620     libucrt:mbctype.obj
 0002:0000a644       $unwind$_setmbcp_nolock    0000000180027644     libucrt:mbctype.obj
 0002:0000a664       $unwind$?getSystemCP@@YAHH@Z 0000000180027664     libucrt:mbctype.obj
 0002:0000a664       $unwind$?_TlgWrite@__vcrt_trace_logging_provider@@YAJPEBU_TlgProvider_t@1@PEFBXPEBU_GUID@@2IPEAU_EVENT_DATA_DESCRIPTOR@@@Z 0000000180027664     libvcruntime:telemetry.obj
 0002:0000a664       $unwind$_isleadbyte_l      0000000180027664     libucrt:_wctype.obj
 0002:0000a664       $unwind$isdigit            0000000180027664     libucrt:_ctype.obj
 0002:0000a66c       $unwind$?setSBUpLow@@YAXPEAU__crt_multibyte_data@@@Z 000000018002766c     libucrt:mbctype.obj
 0002:0000a688       $unwind$?setmbcp_internal@@YAHH_N@Z 0000000180027688     libucrt:mbctype.obj
 0002:0000a698       $unwind$??$?RV<lambda_99476a1ad63dd22509b5d3e65b0ffc95>@@AEAV<lambda_ad1ced32f4ac17aa236e5ef05d6b3b7c>@@V<lambda_f7424dd8d45958661754dc4f2697e9c3>@@@?$__crt_seh_guarded_call@X@@QEAAX$$QEAV<lambda_99476a1ad63dd22509b5d3e65b0ffc95>@@AEAV<lambda_ad1ced32f4ac17aa236e5ef05d6b3b7c>@@$$QEAV<lambda_f7424dd8d45958661754dc4f2697e9c3>@@@Z 0000000180027698     libucrt:mbctype.obj
 0002:0000a6bc       $unwind$?x_ismbbtype_l@@YAHPEAU__crt_locale_pointers@@IHH@Z 00000001800276bc     libucrt:ismbbyte.obj
 0002:0000a6cc       $unwind$__dcrt_get_narrow_environment_from_os 00000001800276cc     libucrt:get_environment_from_os.obj
 0002:0000a6cc       $unwind$?fp_format_f_internal@@YAHQEAD_KHQEAU_strflt@@_NQEAU__crt_locale_pointers@@@Z 00000001800276cc     libucrt:cvt.obj
 0002:0000a6e4       $unwind$__acrt_initialize_lowio 00000001800276e4     libucrt:ioinit.obj
 0002:0000a704       $unwind$?initialize_inherited_file_handles_nolock@@YAXXZ 0000000180027704     libucrt:ioinit.obj
 0002:0000a720       $unwind$__acrt_LCMapStringEx 0000000180027720     libucrt:winapi_thunks.obj
 0002:0000a720       $unwind$__acrt_show_wide_message_box 0000000180027720     libucrt:crtmbox.obj
 0002:0000a720       $unwind$_mbtowc_l          0000000180027720     libucrt:mbtowc.obj
 0002:0000a738       $unwind$_wctomb_s_l        0000000180027738     libucrt:wctomb.obj
 0002:0000a748       $unwind$wcsnlen            0000000180027748     libucrt:strnlen.obj
 0002:0000a750       $unwind$__acrt_fp_format   0000000180027750     libucrt:cvt.obj
 0002:0000a76c       $unwind$?fp_format_nan_or_infinity@@YAHW4__acrt_fp_class@@_NPEAD_K1@Z 000000018002776c     libucrt:cvt.obj
 0002:0000a780       $unwind$?fp_format_e_internal@@YAHQEAD_KH_NIQEAU_strflt@@2QEAU__crt_locale_pointers@@@Z 0000000180027780     libucrt:cvt.obj
 0002:0000a798       $unwind$?fp_format_e@@YAHQEBNQEAD_K12H_NIQEAU__crt_locale_pointers@@@Z 0000000180027798     libucrt:cvt.obj
 0002:0000a7ac       $unwind$?fp_format_a@@YAHQEBNPEAD_KQEAD2H_NIQEAU__crt_locale_pointers@@@Z 00000001800277ac     libucrt:cvt.obj
 0002:0000a7c8       $unwind$?fp_format_g@@YAHQEBNQEAD_K12H_NIQEAU__crt_locale_pointers@@@Z 00000001800277c8     libucrt:cvt.obj
 0002:0000a7dc       $unwind$_fputwc_nolock     00000001800277dc     libucrt:fputwc.obj
 0002:0000a7f8       $unwind$_isctype_l         00000001800277f8     libucrt:isctype.obj
 0002:0000a814       $unwind$_fcloseall         0000000180027814     libucrt:closeall.obj
 0002:0000a838       $unwind$?fin$0@?0???$?RV<lambda_fb3a7dec4e47f37f22dae91bb15c9095>@@AEAV<lambda_698284760c8add0bfb0756c19673e34b>@@V<lambda_dfb8eca1e75fef3034a8fb18dd509707>@@@?$__crt_seh_guarded_call@X@@QEAAX$$QEAV<lambda_fb3a7dec4e47f37f22dae91bb15c9095>@@AEAV<lambda_698284760c8add0bfb0756c19673e34b>@@$$QEAV<lambda_dfb8eca1e75fef3034a8fb18dd509707>@@@Z@4HA 0000000180027838     libucrt:per_thread_data.obj
 0002:0000a838       $unwind$?fin$0@?0???$?RV<lambda_c36588078e9f5dfd39652860aa6b3aaf>@@AEAV<lambda_ec61778202f4f5fc7e7711acc23c3bca>@@V<lambda_dc9d2797ccde5d239b4a0efae8ebd7db>@@@?$__crt_seh_guarded_call@P6AXH@Z@@QEAAP6AXH@Z$$QEAV<lambda_c36588078e9f5dfd39652860aa6b3aaf>@@AEAV<lambda_ec61778202f4f5fc7e7711acc23c3bca>@@$$QEAV<lambda_dc9d2797ccde5d239b4a0efae8ebd7db>@@@Z@4HA 0000000180027838     libucrt:signal.obj
 0002:0000a838       $unwind$fflush$fin$0       0000000180027838     libucrt:fflush.obj
 0002:0000a838       $unwind$?fin$0@?0??dllmain_crt_process_detach@@YAH_N@Z@4HA 0000000180027838     LIBCMT:dll_dllmain.obj
 0002:0000a838       $unwind$__acrt_update_thread_multibyte_data$fin$0 0000000180027838     libucrt:mbctype.obj
 0002:0000a838       $unwind$?fin$0@?0???$?RV<lambda_99476a1ad63dd22509b5d3e65b0ffc95>@@AEAV<lambda_ad1ced32f4ac17aa236e5ef05d6b3b7c>@@V<lambda_f7424dd8d45958661754dc4f2697e9c3>@@@?$__crt_seh_guarded_call@X@@QEAAX$$QEAV<lambda_99476a1ad63dd22509b5d3e65b0ffc95>@@AEAV<lambda_ad1ced32f4ac17aa236e5ef05d6b3b7c>@@$$QEAV<lambda_f7424dd8d45958661754dc4f2697e9c3>@@@Z@4HA 0000000180027838     libucrt:mbctype.obj
 0002:0000a838       $unwind$?fin$0@?0???$?RV<lambda_46352004c1216016012b18bd6f87e700>@@AEAV<lambda_3bd07e1a1191394380780325891bf33f>@@V<lambda_334532d3f185bcaa59b5be82d7d22bff>@@@?$__crt_seh_guarded_call@X@@QEAAX$$QEAV<lambda_46352004c1216016012b18bd6f87e700>@@AEAV<lambda_3bd07e1a1191394380780325891bf33f>@@$$QEAV<lambda_334532d3f185bcaa59b5be82d7d22bff>@@@Z@4HA 0000000180027838     libucrt:per_thread_data.obj
 0002:0000a838       $unwind$?fin$0@?0??dllmain_crt_process_attach@@YAHQEAUHINSTANCE__@@QEAX@Z@4HA 0000000180027838     LIBCMT:dll_dllmain.obj
 0002:0000a838       $unwind$raise$fin$0        0000000180027838     libucrt:signal.obj
 0002:0000a838       $unwind$common_control87$filt$0 0000000180027838     libucrt:ieee.obj
 0002:0000a838       $unwind$?fin$0@?0???$?RV<lambda_e24bbb7b643b32fcea6fa61b31d4c984>@@AEAV<lambda_275893d493268fdec8709772e3fcec0e>@@V<lambda_9d71df4d7cf3f480f8d633942495c3b0>@@@?$__crt_seh_guarded_call@H@@QEAAH$$QEAV<lambda_e24bbb7b643b32fcea6fa61b31d4c984>@@AEAV<lambda_275893d493268fdec8709772e3fcec0e>@@$$QEAV<lambda_9d71df4d7cf3f480f8d633942495c3b0>@@@Z@4HA 0000000180027838     libucrt:onexit.obj
 0002:0000a838       $unwind$?fin$0@?0???$?RV<lambda_7b91131dde12e1c3dfc74ff76b3f2eac>@@AEAV<lambda_dd75445284c072d0bd3768540cc698fa>@@V<lambda_16bc4ecb55b4718497c16bceaea2ceaf>@@@?$__crt_seh_guarded_call@H@@QEAAH$$QEAV<lambda_7b91131dde12e1c3dfc74ff76b3f2eac>@@AEAV<lambda_dd75445284c072d0bd3768540cc698fa>@@$$QEAV<lambda_16bc4ecb55b4718497c16bceaea2ceaf>@@@Z@4HA 0000000180027838     libucrt:output.obj
 0002:0000a838       $unwind$_ctrlfp$filt$0     0000000180027838     libucrt:fpctrl.obj
 0002:0000a838       $unwind$?fin$0@?0???$?RV<lambda_b8c45f8f788dd370798f47cfe8ac3a86>@@AEAV<lambda_4e60a939b0d047cfe11ddc22648dfba9>@@V<lambda_332c3edc96d0294ec56c57d38c1cdfd5>@@@?$__crt_seh_guarded_call@H@@QEAAH$$QEAV<lambda_b8c45f8f788dd370798f47cfe8ac3a86>@@AEAV<lambda_4e60a939b0d047cfe11ddc22648dfba9>@@$$QEAV<lambda_332c3edc96d0294ec56c57d38c1cdfd5>@@@Z@4HA 0000000180027838     libucrt:onexit.obj
 0002:0000a838       $unwind$_write$fin$0       0000000180027838     libucrt:write.obj
 0002:0000a838       $unwind$_query_new_handler$fin$0 0000000180027838     libucrt:new_handler.obj
 0002:0000a838       $unwind$?fin$1@?0??common_exit@@YAXHW4_crt_exit_cleanup_mode@@W4_crt_exit_return_mode@@@Z@4HA 0000000180027838     libucrt:exit.obj
 0002:0000a838       $unwind$__acrt_lowio_ensure_fh_exists$fin$0 0000000180027838     libucrt:osfinfo.obj
 0002:0000a838       $unwind$?fin$0@?0???$?RV<lambda_7a5ef57ff966f610505f1d28a3d40618>@@AEAV<lambda_b721fa326cdb32351d23dfa67958c160>@@V<lambda_5e0fb27672408a07956fe59e48ccb2aa>@@@?$__crt_seh_guarded_call@H@@QEAAH$$QEAV<lambda_7a5ef57ff966f610505f1d28a3d40618>@@AEAV<lambda_b721fa326cdb32351d23dfa67958c160>@@$$QEAV<lambda_5e0fb27672408a07956fe59e48ccb2aa>@@@Z@4HA 0000000180027838     libucrt:setvbuf.obj
 0002:0000a838       $unwind$?fin$0@?0???$common_lseek@_J@@YA_JH_JH@Z@4HA 0000000180027838     libucrt:lseek.obj
 0002:0000a838       $unwind$common_flush_all$fin$0 0000000180027838     libucrt:fflush.obj
 0002:0000a838       $unwind$common_flush_all$fin$1 0000000180027838     libucrt:fflush.obj
 0002:0000a838       $unwind$?filt$0@?0??common_exit@@YAXHW4_crt_exit_cleanup_mode@@W4_crt_exit_return_mode@@@Z@4HA 0000000180027838     libucrt:exit.obj
 0002:0000a838       $unwind$_fcloseall$fin$0   0000000180027838     libucrt:closeall.obj
 0002:0000a838       $unwind$__acrt_initialize_lowio$fin$0 0000000180027838     libucrt:ioinit.obj
 0002:0000a838       $unwind$_IsNonwritableInCurrentImage$filt$0 0000000180027838     LIBCMT:pesect.obj
 0002:0000a838       $unwind$fclose$fin$0       0000000180027838     libucrt:fclose.obj
 0002:0000a838       $unwind$?fin$0@?0???$?RV<lambda_b521505b218e5242e90febf6bfebc422>@@AEAV<lambda_6978c1fb23f02e42e1d9e99668cc68aa>@@V<lambda_314360699dd331753a4119843814e9a7>@@@?$__crt_seh_guarded_call@H@@QEAAH$$QEAV<lambda_b521505b218e5242e90febf6bfebc422>@@AEAV<lambda_6978c1fb23f02e42e1d9e99668cc68aa>@@$$QEAV<lambda_314360699dd331753a4119843814e9a7>@@@Z@4HA 0000000180027838     libucrt:commit.obj
 0002:0000a838       $unwind$?fin$0@?0???$?RV<lambda_bfedae4ebbf01fab1bb6dcc6a9e276e0>@@AEAV<lambda_2fe9b910cf3cbf4a0ab98a02ba45b3ec>@@V<lambda_237c231691f317818eb88cc1d5d642d6>@@@?$__crt_seh_guarded_call@H@@QEAAH$$QEAV<lambda_bfedae4ebbf01fab1bb6dcc6a9e276e0>@@AEAV<lambda_2fe9b910cf3cbf4a0ab98a02ba45b3ec>@@$$QEAV<lambda_237c231691f317818eb88cc1d5d642d6>@@@Z@4HA 0000000180027838     libucrt:close.obj
 0002:0000a838       $unwind$?fin$0@?0???$?RV<lambda_5e887d1dcbef67a5eb4283622ba103bf>@@AEAV<lambda_4466841279450cc726390878d4a41900>@@V<lambda_341c25c0346d94847f1f3c463c57e077>@@@?$__crt_seh_guarded_call@X@@QEAAX$$QEAV<lambda_5e887d1dcbef67a5eb4283622ba103bf>@@AEAV<lambda_4466841279450cc726390878d4a41900>@@$$QEAV<lambda_341c25c0346d94847f1f3c463c57e077>@@@Z@4HA 0000000180027838     libucrt:per_thread_data.obj
 0002:0000a838       $unwind$__acrt_update_thread_locale_data$fin$0 0000000180027838     libucrt:locale_refcounting.obj
 0002:0000a838       $unwind$__acrt_uninitialize_locale$fin$0 0000000180027838     libucrt:wsetlocale.obj
 0002:0000a838       $unwind$?fin$0@?0???$?RV<lambda_72d1df2b273a38828b1ce30cbf4cdab5>@@AEAV<lambda_876a65b173b8412d3a47c70a915b0cf4>@@V<lambda_41932305e351933ebe8f8be3ed8bb5dc>@@@?$__crt_seh_guarded_call@X@@QEAAX$$QEAV<lambda_72d1df2b273a38828b1ce30cbf4cdab5>@@AEAV<lambda_876a65b173b8412d3a47c70a915b0cf4>@@$$QEAV<lambda_41932305e351933ebe8f8be3ed8bb5dc>@@@Z@4HA 0000000180027838     libucrt:per_thread_data.obj
 0002:0000a840       $unwind$??$?RV<lambda_b521505b218e5242e90febf6bfebc422>@@AEAV<lambda_6978c1fb23f02e42e1d9e99668cc68aa>@@V<lambda_314360699dd331753a4119843814e9a7>@@@?$__crt_seh_guarded_call@H@@QEAAH$$QEAV<lambda_b521505b218e5242e90febf6bfebc422>@@AEAV<lambda_6978c1fb23f02e42e1d9e99668cc68aa>@@$$QEAV<lambda_314360699dd331753a4119843814e9a7>@@@Z 0000000180027840     libucrt:commit.obj
 0002:0000a864       $unwind$_write             0000000180027864     libucrt:write.obj
 0002:0000a894       $unwind$_write_nolock      0000000180027894     libucrt:write.obj
 0002:0000a8ac       $unwind$?write_double_translated_ansi_nolock@@YA?AUwrite_result@?A0x9c548279@@HQEBDI@Z 00000001800278ac     libucrt:write.obj
 0002:0000a8cc       $unwind$?write_text_ansi_nolock@@YA?AUwrite_result@?A0x9c548279@@HQEBDI@Z 00000001800278cc     libucrt:write.obj
 0002:0000a8cc       $unwind$?write_text_utf16le_nolock@@YA?AUwrite_result@?A0x9c548279@@HQEBDI@Z 00000001800278cc     libucrt:write.obj
 0002:0000a8ec       $unwind$?write_text_utf8_nolock@@YA?AUwrite_result@?A0x9c548279@@HQEBDI@Z 00000001800278ec     libucrt:write.obj
 0002:0000a910       $unwind$__acrt_update_thread_locale_data 0000000180027910     libucrt:locale_refcounting.obj
 0002:0000a934       $unwind$__acrt_LCMapStringA 0000000180027934     libucrt:lcmapstringa.obj
 0002:0000a944       $unwind$?__acrt_LCMapStringA_stat@@YAHPEAU__crt_locale_pointers@@PEB_WKPEBDHPEADHHH@Z 0000000180027944     libucrt:lcmapstringa.obj
 0002:0000a96c       $unwind$__acrt_locale_free_monetary 000000018002796c     libucrt:initmon.obj
 0002:0000a974       $unwind$?destroy_fls@@YAXPEAX@Z 0000000180027974     libucrt:per_thread_data.obj
 0002:0000a974       $unwind$__acrt_locale_free_lc_time_if_unreferenced 0000000180027974     libucrt:locale_refcounting.obj
 0002:0000a974       $unwind$__acrt_locale_free_numeric 0000000180027974     libucrt:initnum.obj
 0002:0000a974       $unwind$_free_base         0000000180027974     libucrt:free_base.obj
 0002:0000a97c       $unwind$__acrt_locale_free_time 000000018002797c     libucrt:inittime.obj
 0002:0000a98c       $unwind$__acrt_GetStringTypeA 000000018002798c     libucrt:getstringtypea.obj
 0002:0000a9b4       $unwind$?GetTableIndexFromLocaleName@@YAHPEB_W@Z 00000001800279b4     libucrt:lcidtoname_downlevel.obj
 0002:0000a9cc       $unwind$qsort              00000001800279cc     libucrt:qsort.obj
 0002:0000a9e4       $chain$4$qsort             00000001800279e4     libucrt:qsort.obj
 0002:0000aa08       $chain$5$qsort             0000000180027a08     libucrt:qsort.obj
 0002:0000aa18       $unwind$?shortsort@@YAXPEAD0_KP6AHPEBX2@Z@Z 0000000180027a18     libucrt:qsort.obj
 0002:0000aa28       $chain$2$?shortsort@@YAXPEAD0_KP6AHPEBX2@Z@Z 0000000180027a28     libucrt:qsort.obj
 0002:0000aa44       $chain$3$?shortsort@@YAXPEAD0_KP6AHPEBX2@Z@Z 0000000180027a44     libucrt:qsort.obj
 0002:0000aa54       $unwind$strpbrk            0000000180027a54     libucrt:strpbrk.obj
 0002:0000aa64       $unwind$_mbsdec_l          0000000180027a64     libucrt:mbsdec.obj
 0002:0000aa70       $unwind$__acrt_lowio_destroy_handle_array 0000000180027a70     libucrt:osfinfo.obj
 0002:0000aa80       $unwind$__acrt_lowio_ensure_fh_exists 0000000180027a80     libucrt:osfinfo.obj
 0002:0000aaac       $unwind$__acrt_fltout      0000000180027aac     libucrt:cfout.obj
 0002:0000aacc       $unwind$?divide@__crt_strtox@@YA_KAEAUbig_integer@1@AEBU21@@Z 0000000180027acc     libucrt:cfout.obj
 0002:0000aaec       $chain$5$?divide@__crt_strtox@@YA_KAEAUbig_integer@1@AEBU21@@Z 0000000180027aec     libucrt:cfout.obj
 0002:0000ab00       $chain$6$?divide@__crt_strtox@@YA_KAEAUbig_integer@1@AEBU21@@Z 0000000180027b00     libucrt:cfout.obj
 0002:0000ab10       $unwind$??$write_buffer_nolock@D@@YA_NDV__crt_stdio_stream@@@Z 0000000180027b10     libucrt:_flsbuf.obj
 0002:0000ab20       $unwind$??$write_buffer_nolock@_W@@YA_N_WV__crt_stdio_stream@@@Z 0000000180027b20     libucrt:_flsbuf.obj
 0002:0000ab30       $unwind$fclose             0000000180027b30     libucrt:fclose.obj
 0002:0000ab54       $unwind$??$common_lseek@_J@@YA_JH_JH@Z 0000000180027b54     libucrt:lseek.obj
 0002:0000ab88       $xdatasym                  0000000180027b88     libucrt:log10.obj
 0002:0000ab94       $unwind$_commit            0000000180027b94     libucrt:commit.obj
 0002:0000ab94       $unwind$_close             0000000180027b94     libucrt:close.obj
 0002:0000ab9c       $unwind$??$?RV<lambda_bfedae4ebbf01fab1bb6dcc6a9e276e0>@@AEAV<lambda_2fe9b910cf3cbf4a0ab98a02ba45b3ec>@@V<lambda_237c231691f317818eb88cc1d5d642d6>@@@?$__crt_seh_guarded_call@H@@QEAAH$$QEAV<lambda_bfedae4ebbf01fab1bb6dcc6a9e276e0>@@AEAV<lambda_2fe9b910cf3cbf4a0ab98a02ba45b3ec>@@$$QEAV<lambda_237c231691f317818eb88cc1d5d642d6>@@@Z 0000000180027b9c     libucrt:close.obj
 0002:0000abc0       $unwind$common_control87   0000000180027bc0     libucrt:ieee.obj
 0002:0000abf0       $unwind$_call_matherr      0000000180027bf0     libucrt:libm_error.obj
 0002:0000abf8       $unwind$_handle_errorf     0000000180027bf8     libucrt:libm_error.obj
 0002:0000abf8       $unwind$_handle_error      0000000180027bf8     libucrt:libm_error.obj
 0002:0000ac18       $unwind$__acrt_initialize_fma3 0000000180027c18     libucrt:fma3_available.obj
 0002:0000ac20       $unwind$_log_special_common 0000000180027c20     libucrt:log_special.obj
 0002:0000ac2c       $unwind$_log10_special     0000000180027c2c     libucrt:log_special.obj
 0002:0000ac2c       $unwind$_invalid_parameter_noinfo 0000000180027c2c     libucrt:invalid_parameter.obj
 0002:0000ac2c       $unwind$_itow_s            0000000180027c2c     libucrt:xtoa.obj
 0002:0000ac2c       $unwind$_invalid_parameter_noinfo_noreturn 0000000180027c2c     libucrt:invalid_parameter.obj
 0002:0000ac2c       $unwind$wctomb_s           0000000180027c2c     libucrt:wctomb.obj
 0002:0000ac38       $xdatasym                  0000000180027c38     libucrt:fpsr.obj
 0002:0000ac40       $unwind$_raise_exc_ex      0000000180027c40     libucrt:fpexcept.obj
 0002:0000ac54       $unwind$_ctrlfp            0000000180027c54     libucrt:fpctrl.obj
 0002:0000ac7c       $unwind$_IsNonwritableInCurrentImage 0000000180027c7c     LIBCMT:pesect.obj
 0002:0000aca0       $unwind$__GSHandlerCheckCommon 0000000180027ca0     LIBCMT:_gshandler_.obj
 0002:0000aca8       $xdatasym                  0000000180027ca8     LIBCMT:_chkstk_.obj
 0002:0000acb0       $xdatasym                  0000000180027cb0     libvcruntime:memcmp.obj
 0002:0000acb4       $unwind$strrchr            0000000180027cb4     libvcruntime:strrchr.obj
 0002:0000acbc       $unwind$atanf              0000000180027cbc     libucrt:atanf.obj
 0002:0000acc8       $xdatasym                  0000000180027cc8     libucrt:cosf.obj
 0002:0000acd0       $xdatasym                  0000000180027cd0     libucrt:sinf.obj
 0002:0000acd8       $xdatasym                  0000000180027cd8     libucrt:remainder_piby2f_forasm.obj
 0002:0000ace0       $xdatasym                  0000000180027ce0     libucrt:remainder_piby2_forfma3.obj
 0002:0000acec       $unwind$_sincosf_special   0000000180027cec     libucrt:sincos_special.obj
 0002:0000acf8       $xdatasym                  0000000180027cf8     libucrt:remainder_piby2f_forc.obj
 0002:0000aef0       .edata                     0000000180027ef0     kinect2.exp
 0002:0000af18       rgpv                       0000000180027f18     kinect2.exp
 0002:0000af1c       rgszName                   0000000180027f1c     kinect2.exp
 0002:0000af20       rgwOrd                     0000000180027f20     kinect2.exp
 0002:0000af22       szName                     0000000180027f22     kinect2.exp
 0002:0000af2f       $N00001                    0000000180027f2f     kinect2.exp
 0002:0000b388       .idata$6                   0000000180028388     kernel32:KERNEL32.dll
 0002:0000be50       .idata$6                   0000000180028e50     iojs:node.dll
 0002:0000be74       .idata$6                   0000000180028e74     kinect20:Kinect20.dll
 0002:0000c3d2       .idata$6                   00000001800293d2     advapi32:ADVAPI32.dll
 0003:00000030       ?_Tlg_Microsoft_CRTProviderProv@@3U_TlgProvider_t@__vcrt_trace_logging_provider@@A 000000018002a030     libvcruntime:telemetry.obj
 0003:00000080       ?__vcrt_flsindex@@3KA      000000018002a080     libvcruntime:per_thread_data.obj
 0003:00000094       errno_no_memory            000000018002a094     libucrt:errno.obj
 0003:00000098       doserrno_no_memory         000000018002a098     libucrt:errno.obj
 0003:000001a8       __acrt_flsindex            000000018002a1a8     libucrt:per_thread_data.obj
 0003:00000550       __rgctypeflag              000000018002a550     libucrt:mbctype.obj
 0003:00000560       __rgcode_page_info         000000018002a560     libucrt:mbctype.obj
 0003:00000958       ?dazSupported@?1??common_control87@@9@9 000000018002a958     libucrt:ieee.obj
 0003:00000960       ?dazSupported@?1??_ctrlfp@@9@9 000000018002a960     libucrt:fpctrl.obj
 0003:00000980       _module                    000000018002a980     kinect2.obj
 0003:00000ae0       GS_ExceptionRecord         000000018002aae0     LIBCMT:gs_report.obj
 0003:00000b80       GS_ContextRecord           000000018002ab80     LIBCMT:gs_report.obj
 0003:00001060       ?module_local_atexit_table@@3U_onexit_table_t@@A 000000018002b060     LIBCMT:utility.obj
 0003:00001078       ?module_local_at_quick_exit_table@@3U_onexit_table_t@@A 000000018002b078     LIBCMT:utility.obj
 0003:00001090       ?is_initialized_as_dll@@3_NA 000000018002b090     LIBCMT:utility.obj
 0003:00001094       ?__proc_attached@@3HA      000000018002b094     LIBCMT:dll_dllmain.obj
 0003:000010c0       ?__vcrt_startup_thread_ptd@@3U__vcrt_ptd@@A 000000018002b0c0     libvcruntime:per_thread_data.obj
 0003:00001138       __vcrt_lock_table          000000018002b138     libvcruntime:locks.obj
 0003:00001160       __vcrt_locks_initialized   000000018002b160     libvcruntime:locks.obj
 0003:00001170       ?module_handles@@3PAPEAUHINSTANCE__@@A 000000018002b170     libvcruntime:winapi_downlevel.obj
 0003:00001190       ?encoded_function_pointers@@3PAPEAXA 000000018002b190     libvcruntime:winapi_downlevel.obj
 0003:00001228       ?heap@@3V_HeapManager@@A   000000018002b228     libvcruntime:undname.obj
 0003:00001250       __acrt_invalid_parameter_handler 000000018002b250     libucrt:invalid_parameter.obj
 0003:00001258       __acrt_new_handler         000000018002b258     libucrt:new_handler.obj
 0003:00001260       c_termination_complete     000000018002b260     libucrt:exit.obj
 0003:00001268       thread_local_exit_callback_func 000000018002b268     libucrt:exit.obj
 0003:00001270       ?c_exit_complete@?5??common_exit@@YAXHW4_crt_exit_cleanup_mode@@W4_crt_exit_return_mode@@@Z@4_NA 000000018002b270     libucrt:exit.obj
 0003:00001280       ?program_name@?5???$common_configure_argv@D@@YAHW4_crt_argv_mode@@@Z@4PADA 000000018002b280     libucrt:argv_parsing.obj
 0003:000013d8       __acrt_app_type            000000018002b3d8     libucrt:report_runtime_error.obj
 0003:000013dc       __acrt_error_mode          000000018002b3dc     libucrt:set_error_mode.obj
 0003:000013f8       ctrlc_action               000000018002b3f8     libucrt:signal.obj
 0003:00001400       ctrlbreak_action           000000018002b400     libucrt:signal.obj
 0003:00001408       abort_action               000000018002b408     libucrt:signal.obj
 0003:00001410       term_action                000000018002b410     libucrt:signal.obj
 0003:00001430       __acrt_lock_table          000000018002b430     libucrt:locks.obj
 0003:00001638       __acrt_locks_initialized   000000018002b638     libucrt:locks.obj
 0003:00001640       module_handles             000000018002b640     libucrt:winapi_thunks.obj
 0003:000016e0       encoded_function_pointers  000000018002b6e0     libucrt:winapi_thunks.obj
 0003:000017e0       ?state_cache@?1??__acrt_is_packaged_app@@9@4JA 000000018002b7e0     libucrt:winapi_thunks.obj
 0003:000017fc       fSystemSet                 000000018002b7fc     libucrt:mbctype.obj
 0003:00001808       ?initialized@?1??__acrt_initialize_multibyte@@9@4_NA 000000018002b808     libucrt:mbctype.obj
 0003:00001c48       user_matherr               000000018002bc48     libucrt:matherr.obj
 0003:00001c60       __acrt_global_new_mode     000000018002bc60     libucrt:new_mode.obj
 0003:00001c68       enable_percent_n           000000018002bc68     libucrt:printf_count_output.obj
 0004:00000000       $pdata$?TraceLoggingRegister@__vcrt_trace_logging_provider@@YAJPEBU_TlgProvider_t@1@PEBU_GUID@@P6AX1KE_K2PEAU_EVENT_FILTER_DESCRIPTOR@@PEAX@Z4@Z 0000000185f1f000     libvcruntime:telemetry.obj
 0004:0000000c       $pdata$?_TlgEnableCallback@__vcrt_trace_logging_provider@@YAXPEBU_GUID@@KE_K1PEAU_EVENT_FILTER_DESCRIPTOR@@PEAX@Z 0000000185f1f00c     libvcruntime:telemetry.obj
 0004:00000018       $pdata$?_TlgWrite@__vcrt_trace_logging_provider@@YAJPEBU_TlgProvider_t@1@PEFBXPEBU_GUID@@2IPEAU_EVENT_DATA_DESCRIPTOR@@@Z 0000000185f1f018     libvcruntime:telemetry.obj
 0004:00000024       $pdata$??__Em_pColorPixels@@YAXXZ 0000000185f1f024     kinect2.obj
 0004:00000030       $pdata$??__Em_pColorPixelsV8@@YAXXZ 0000000185f1f030     kinect2.obj
 0004:0000003c       $pdata$??__Em_pInfraredPixels@@YAXXZ 0000000185f1f03c     kinect2.obj
 0004:00000048       $pdata$??__Em_pInfraredPixelsV8@@YAXXZ 0000000185f1f048     kinect2.obj
 0004:00000054       $pdata$??__Em_pLongExposureInfraredPixels@@YAXXZ 0000000185f1f054     kinect2.obj
 0004:00000060       $pdata$??__Em_pLongExposureInfraredPixelsV8@@YAXXZ 0000000185f1f060     kinect2.obj
 0004:0000006c       $pdata$??__Em_pDepthPixels@@YAXXZ 0000000185f1f06c     kinect2.obj
 0004:00000078       $pdata$??__Em_pDepthPixelsV8@@YAXXZ 0000000185f1f078     kinect2.obj
 0004:00000084       $pdata$??__Em_pRawDepthValues@@YAXXZ 0000000185f1f084     kinect2.obj
 0004:00000090       $pdata$??__Em_pRawDepthValuesV8@@YAXXZ 0000000185f1f090     kinect2.obj
 0004:0000009c       $pdata$??__Em_pDepthColorPixels@@YAXXZ 0000000185f1f09c     kinect2.obj
 0004:000000a8       $pdata$??__Em_pDepthColorPixelsV8@@YAXXZ 0000000185f1f0a8     kinect2.obj
 0004:000000b4       $pdata$??__Em_pDepthCoordinatesForColor@@YAXXZ 0000000185f1f0b4     kinect2.obj
 0004:000000c0       $pdata$??__Em_pColorCoordinatesForDepth@@YAXXZ 0000000185f1f0c0     kinect2.obj
 0004:000000cc       $pdata$?FunctionCallbackWrapper@imp@Nan@@YAXAEBV?$FunctionCallbackInfo@VValue@v8@@@v8@@@Z 0000000185f1f0cc     kinect2.obj
 0004:000000d8       $pdata$?New@?$Factory@VFunctionTemplate@v8@@@imp@Nan@@SA?AV?$Local@VFunctionTemplate@v8@@@v8@@P6AXAEBV?$FunctionCallbackInfo@VValue@v8@@@3@@ZV?$Local@VValue@v8@@@5@V?$Local@VSignature@v8@@@5@@Z 0000000185f1f0d8     kinect2.obj
 0004:000000e4       $pdata$0$?New@?$Factory@VFunctionTemplate@v8@@@imp@Nan@@SA?AV?$Local@VFunctionTemplate@v8@@@v8@@P6AXAEBV?$FunctionCallbackInfo@VValue@v8@@@3@@ZV?$Local@VValue@v8@@@5@V?$Local@VSignature@v8@@@5@@Z 0000000185f1f0e4     kinect2.obj
 0004:000000f0       $pdata$1$?New@?$Factory@VFunctionTemplate@v8@@@imp@Nan@@SA?AV?$Local@VFunctionTemplate@v8@@@v8@@P6AXAEBV?$FunctionCallbackInfo@VValue@v8@@@3@@ZV?$Local@VValue@v8@@@5@V?$Local@VSignature@v8@@@5@@Z 0000000185f1f0f0     kinect2.obj
 0004:000000fc       $pdata$2$?New@?$Factory@VFunctionTemplate@v8@@@imp@Nan@@SA?AV?$Local@VFunctionTemplate@v8@@@v8@@P6AXAEBV?$FunctionCallbackInfo@VValue@v8@@@3@@ZV?$Local@VValue@v8@@@5@V?$Local@VSignature@v8@@@5@@Z 0000000185f1f0fc     kinect2.obj
 0004:00000108       $pdata$3$?New@?$Factory@VFunctionTemplate@v8@@@imp@Nan@@SA?AV?$Local@VFunctionTemplate@v8@@@v8@@P6AXAEBV?$FunctionCallbackInfo@VValue@v8@@@3@@ZV?$Local@VValue@v8@@@5@V?$Local@VSignature@v8@@@5@@Z 0000000185f1f108     kinect2.obj
 0004:00000114       $pdata$?Call@Callback@Nan@@QEBA?AV?$Local@VValue@v8@@@v8@@HQEAV34@@Z 0000000185f1f114     kinect2.obj
 0004:00000120       $pdata$?OpenFunction@@YAXAEBV?$FunctionCallbackInfo@VValue@v8@@@Nan@@@Z 0000000185f1f120     kinect2.obj
 0004:0000012c       $pdata$?CloseFunction@@YAXAEBV?$FunctionCallbackInfo@VValue@v8@@@Nan@@@Z 0000000185f1f12c     kinect2.obj
 0004:00000138       $pdata$?ColorProgress_@@YAXPEAUuv_async_s@@@Z 0000000185f1f138     kinect2.obj
 0004:00000144       $pdata$?processColorFrameData@@YAJPEAUIColorFrame@@@Z 0000000185f1f144     kinect2.obj
 0004:00000150       $pdata$?ColorReaderThreadLoop@@YAXPEAX@Z 0000000185f1f150     kinect2.obj
 0004:0000015c       $pdata$0$?ColorReaderThreadLoop@@YAXPEAX@Z 0000000185f1f15c     kinect2.obj
 0004:00000168       $pdata$1$?ColorReaderThreadLoop@@YAXPEAX@Z 0000000185f1f168     kinect2.obj
 0004:00000174       $pdata$?OpenColorReaderFunction@@YAXAEBV?$FunctionCallbackInfo@VValue@v8@@@Nan@@@Z 0000000185f1f174     kinect2.obj
 0004:00000180       $pdata$?CloseColorReaderFunction@@YAXAEBV?$FunctionCallbackInfo@VValue@v8@@@Nan@@@Z 0000000185f1f180     kinect2.obj
 0004:0000018c       $pdata$?InfraredProgress_@@YAXPEAUuv_async_s@@@Z 0000000185f1f18c     kinect2.obj
 0004:00000198       $pdata$?processInfraredFrameData@@YAJPEAUIInfraredFrame@@@Z 0000000185f1f198     kinect2.obj
 0004:000001a4       $pdata$0$?processInfraredFrameData@@YAJPEAUIInfraredFrame@@@Z 0000000185f1f1a4     kinect2.obj
 0004:000001b0       $pdata$1$?processInfraredFrameData@@YAJPEAUIInfraredFrame@@@Z 0000000185f1f1b0     kinect2.obj
 0004:000001bc       $pdata$2$?processInfraredFrameData@@YAJPEAUIInfraredFrame@@@Z 0000000185f1f1bc     kinect2.obj
 0004:000001c8       $pdata$3$?processInfraredFrameData@@YAJPEAUIInfraredFrame@@@Z 0000000185f1f1c8     kinect2.obj
 0004:000001d4       $pdata$?InfraredReaderThreadLoop@@YAXPEAX@Z 0000000185f1f1d4     kinect2.obj
 0004:000001e0       $pdata$0$?InfraredReaderThreadLoop@@YAXPEAX@Z 0000000185f1f1e0     kinect2.obj
 0004:000001ec       $pdata$1$?InfraredReaderThreadLoop@@YAXPEAX@Z 0000000185f1f1ec     kinect2.obj
 0004:000001f8       $pdata$?OpenInfraredReaderFunction@@YAXAEBV?$FunctionCallbackInfo@VValue@v8@@@Nan@@@Z 0000000185f1f1f8     kinect2.obj
 0004:00000204       $pdata$?CloseInfraredReaderFunction@@YAXAEBV?$FunctionCallbackInfo@VValue@v8@@@Nan@@@Z 0000000185f1f204     kinect2.obj
 0004:00000210       $pdata$?LongExposureInfraredProgress_@@YAXPEAUuv_async_s@@@Z 0000000185f1f210     kinect2.obj
 0004:0000021c       $pdata$?processLongExposureInfraredFrameData@@YAJPEAUILongExposureInfraredFrame@@@Z 0000000185f1f21c     kinect2.obj
 0004:00000228       $pdata$0$?processLongExposureInfraredFrameData@@YAJPEAUILongExposureInfraredFrame@@@Z 0000000185f1f228     kinect2.obj
 0004:00000234       $pdata$1$?processLongExposureInfraredFrameData@@YAJPEAUILongExposureInfraredFrame@@@Z 0000000185f1f234     kinect2.obj
 0004:00000240       $pdata$2$?processLongExposureInfraredFrameData@@YAJPEAUILongExposureInfraredFrame@@@Z 0000000185f1f240     kinect2.obj
 0004:0000024c       $pdata$3$?processLongExposureInfraredFrameData@@YAJPEAUILongExposureInfraredFrame@@@Z 0000000185f1f24c     kinect2.obj
 0004:00000258       $pdata$?LongExposureInfraredReaderThreadLoop@@YAXPEAX@Z 0000000185f1f258     kinect2.obj
 0004:00000264       $pdata$0$?LongExposureInfraredReaderThreadLoop@@YAXPEAX@Z 0000000185f1f264     kinect2.obj
 0004:00000270       $pdata$1$?LongExposureInfraredReaderThreadLoop@@YAXPEAX@Z 0000000185f1f270     kinect2.obj
 0004:0000027c       $pdata$?OpenLongExposureInfraredReaderFunction@@YAXAEBV?$FunctionCallbackInfo@VValue@v8@@@Nan@@@Z 0000000185f1f27c     kinect2.obj
 0004:00000288       $pdata$?CloseLongExposureInfraredReaderFunction@@YAXAEBV?$FunctionCallbackInfo@VValue@v8@@@Nan@@@Z 0000000185f1f288     kinect2.obj
 0004:00000294       $pdata$?DepthProgress_@@YAXPEAUuv_async_s@@@Z 0000000185f1f294     kinect2.obj
 0004:000002a0       $pdata$?processDepthFrameData@@YAJPEAUIDepthFrame@@@Z 0000000185f1f2a0     kinect2.obj
 0004:000002ac       $pdata$?DepthReaderThreadLoop@@YAXPEAX@Z 0000000185f1f2ac     kinect2.obj
 0004:000002b8       $pdata$0$?DepthReaderThreadLoop@@YAXPEAX@Z 0000000185f1f2b8     kinect2.obj
 0004:000002c4       $pdata$1$?DepthReaderThreadLoop@@YAXPEAX@Z 0000000185f1f2c4     kinect2.obj
 0004:000002d0       $pdata$?OpenDepthReaderFunction@@YAXAEBV?$FunctionCallbackInfo@VValue@v8@@@Nan@@@Z 0000000185f1f2d0     kinect2.obj
 0004:000002dc       $pdata$?CloseDepthReaderFunction@@YAXAEBV?$FunctionCallbackInfo@VValue@v8@@@Nan@@@Z 0000000185f1f2dc     kinect2.obj
 0004:000002e8       $pdata$?RawDepthProgress_@@YAXPEAUuv_async_s@@@Z 0000000185f1f2e8     kinect2.obj
 0004:000002f4       $pdata$?processRawDepthFrameData@@YAJPEAUIDepthFrame@@@Z 0000000185f1f2f4     kinect2.obj
 0004:00000300       $pdata$?RawDepthReaderThreadLoop@@YAXPEAX@Z 0000000185f1f300     kinect2.obj
 0004:0000030c       $pdata$0$?RawDepthReaderThreadLoop@@YAXPEAX@Z 0000000185f1f30c     kinect2.obj
 0004:00000318       $pdata$1$?RawDepthReaderThreadLoop@@YAXPEAX@Z 0000000185f1f318     kinect2.obj
 0004:00000324       $pdata$?OpenRawDepthReaderFunction@@YAXAEBV?$FunctionCallbackInfo@VValue@v8@@@Nan@@@Z 0000000185f1f324     kinect2.obj
 0004:00000330       $pdata$?CloseRawDepthReaderFunction@@YAXAEBV?$FunctionCallbackInfo@VValue@v8@@@Nan@@@Z 0000000185f1f330     kinect2.obj
 0004:0000033c       $pdata$?getV8BodyFrame_@@YA?AV?$Local@VObject@v8@@@v8@@XZ 0000000185f1f33c     kinect2.obj
 0004:00000348       $pdata$?BodyProgress_@@YAXPEAUuv_async_s@@@Z 0000000185f1f348     kinect2.obj
 0004:00000354       $pdata$?processBodyFrameData@@YAJPEAUIBodyFrame@@@Z 0000000185f1f354     kinect2.obj
 0004:00000360       $pdata$11$?processBodyFrameData@@YAJPEAUIBodyFrame@@@Z 0000000185f1f360     kinect2.obj
 0004:0000036c       $pdata$12$?processBodyFrameData@@YAJPEAUIBodyFrame@@@Z 0000000185f1f36c     kinect2.obj
 0004:00000378       $pdata$?BodyReaderThreadLoop@@YAXPEAX@Z 0000000185f1f378     kinect2.obj
 0004:00000384       $pdata$2$?BodyReaderThreadLoop@@YAXPEAX@Z 0000000185f1f384     kinect2.obj
 0004:00000390       $pdata$3$?BodyReaderThreadLoop@@YAXPEAX@Z 0000000185f1f390     kinect2.obj
 0004:0000039c       $pdata$?OpenBodyReaderFunction@@YAXAEBV?$FunctionCallbackInfo@VValue@v8@@@Nan@@@Z 0000000185f1f39c     kinect2.obj
 0004:000003a8       $pdata$?CloseBodyReaderFunction@@YAXAEBV?$FunctionCallbackInfo@VValue@v8@@@Nan@@@Z 0000000185f1f3a8     kinect2.obj
 0004:000003b4       $pdata$?MultiSourceProgress_@@YAXPEAUuv_async_s@@@Z 0000000185f1f3b4     kinect2.obj
 0004:000003c0       $pdata$1$?MultiSourceProgress_@@YAXPEAUuv_async_s@@@Z 0000000185f1f3c0     kinect2.obj
 0004:000003cc       $pdata$5$?MultiSourceProgress_@@YAXPEAUuv_async_s@@@Z 0000000185f1f3cc     kinect2.obj
 0004:000003d8       $pdata$7$?MultiSourceProgress_@@YAXPEAUuv_async_s@@@Z 0000000185f1f3d8     kinect2.obj
 0004:000003e4       $pdata$8$?MultiSourceProgress_@@YAXPEAUuv_async_s@@@Z 0000000185f1f3e4     kinect2.obj
 0004:000003f0       $pdata$9$?MultiSourceProgress_@@YAXPEAUuv_async_s@@@Z 0000000185f1f3f0     kinect2.obj
 0004:000003fc       $pdata$10$?MultiSourceProgress_@@YAXPEAUuv_async_s@@@Z 0000000185f1f3fc     kinect2.obj
 0004:00000408       $pdata$?MultiSourceReaderThreadLoop@@YAXPEAX@Z 0000000185f1f408     kinect2.obj
 0004:00000414       $pdata$8$?MultiSourceReaderThreadLoop@@YAXPEAX@Z 0000000185f1f414     kinect2.obj
 0004:00000420       $pdata$9$?MultiSourceReaderThreadLoop@@YAXPEAX@Z 0000000185f1f420     kinect2.obj
 0004:0000042c       $pdata$?OpenMultiSourceReaderFunction@@YAXAEBV?$FunctionCallbackInfo@VValue@v8@@@Nan@@@Z 0000000185f1f42c     kinect2.obj
 0004:00000438       $pdata$?CloseMultiSourceReaderFunction@@YAXAEBV?$FunctionCallbackInfo@VValue@v8@@@Nan@@@Z 0000000185f1f438     kinect2.obj
 0004:00000444       $pdata$?TrackPixelsForBodyIndicesFunction@@YAXAEBV?$FunctionCallbackInfo@VValue@v8@@@Nan@@@Z 0000000185f1f444     kinect2.obj
 0004:00000450       $pdata$1$?TrackPixelsForBodyIndicesFunction@@YAXAEBV?$FunctionCallbackInfo@VValue@v8@@@Nan@@@Z 0000000185f1f450     kinect2.obj
 0004:0000045c       $pdata$2$?TrackPixelsForBodyIndicesFunction@@YAXAEBV?$FunctionCallbackInfo@VValue@v8@@@Nan@@@Z 0000000185f1f45c     kinect2.obj
 0004:00000468       $pdata$?Init@@YAXV?$Local@VObject@v8@@@v8@@@Z 0000000185f1f468     kinect2.obj
 0004:00000474       $pdata$?assign@?$basic_string@DU?$char_traits@D@std@@V?$allocator@D@2@@std@@QEAAAEAV12@PEBD_K@Z 0000000185f1f474     kinect2.obj
 0004:00000480       $pdata$?assign@?$basic_string@DU?$char_traits@D@std@@V?$allocator@D@2@@std@@QEAAAEAV12@AEBV12@_K1@Z 0000000185f1f480     kinect2.obj
 0004:0000048c       $pdata$?erase@?$basic_string@DU?$char_traits@D@std@@V?$allocator@D@2@@std@@QEAAAEAV12@_K0@Z 0000000185f1f48c     kinect2.obj
 0004:00000498       $pdata$?_Copy@?$basic_string@DU?$char_traits@D@std@@V?$allocator@D@2@@std@@QEAAX_K0@Z 0000000185f1f498     kinect2.obj
 0004:000004a4       $pdata$??$_Integral_to_string@D_K@std@@YA?AV?$basic_string@DU?$char_traits@D@std@@V?$allocator@D@2@@0@_K@Z 0000000185f1f4a4     kinect2.obj
 0004:000004b0       $pdata$??0bad_alloc@std@@QEAA@AEBV01@@Z 0000000185f1f4b0     libcpmt:xthrow.obj
 0004:000004bc       $pdata$??0exception@std@@QEAA@AEBV01@@Z 0000000185f1f4bc     libcpmt:xthrow.obj
 0004:000004c8       $pdata$??0length_error@std@@QEAA@AEBV01@@Z 0000000185f1f4c8     libcpmt:xthrow.obj
 0004:000004d4       $pdata$??0length_error@std@@QEAA@PEBD@Z 0000000185f1f4d4     libcpmt:xthrow.obj
 0004:000004e0       $pdata$??0logic_error@std@@QEAA@AEBV01@@Z 0000000185f1f4e0     libcpmt:xthrow.obj
 0004:000004ec       $pdata$??0out_of_range@std@@QEAA@AEBV01@@Z 0000000185f1f4ec     libcpmt:xthrow.obj
 0004:000004f8       $pdata$??0out_of_range@std@@QEAA@PEBD@Z 0000000185f1f4f8     libcpmt:xthrow.obj
 0004:00000504       $pdata$??_Glogic_error@std@@UEAAPEAXI@Z 0000000185f1f504     libcpmt:xthrow.obj
 0004:00000504       $pdata$??_Glength_error@std@@UEAAPEAXI@Z 0000000185f1f504     libcpmt:xthrow.obj
 0004:00000504       $pdata$??_Gexception@std@@UEAAPEAXI@Z 0000000185f1f504     libcpmt:xthrow.obj
 0004:00000504       $pdata$??_Gout_of_range@std@@UEAAPEAXI@Z 0000000185f1f504     libcpmt:xthrow.obj
 0004:00000504       $pdata$??_Gbad_array_new_length@std@@UEAAPEAXI@Z 0000000185f1f504     LIBCMT:throw_bad_alloc.obj
 0004:00000504       $pdata$??_Gbad_alloc@std@@UEAAPEAXI@Z 0000000185f1f504     libcpmt:xthrow.obj
 0004:00000510       $pdata$?_Xbad_alloc@std@@YAXXZ 0000000185f1f510     libcpmt:xthrow.obj
 0004:00000510       $pdata$?__scrt_throw_std_bad_alloc@@YAXXZ 0000000185f1f510     LIBCMT:throw_bad_alloc.obj
 0004:0000051c       $pdata$?_Xlength_error@std@@YAXPEBD@Z 0000000185f1f51c     libcpmt:xthrow.obj
 0004:00000528       $pdata$?_Xout_of_range@std@@YAXPEBD@Z 0000000185f1f528     libcpmt:xthrow.obj
 0004:00000540       $pdata$__raise_securityfailure 0000000185f1f540     LIBCMT:gs_report.obj
 0004:0000054c       $pdata$__report_gsfailure  0000000185f1f54c     LIBCMT:gs_report.obj
 0004:00000558       $pdata$__report_rangecheckfailure 0000000185f1f558     LIBCMT:gs_report.obj
 0004:00000564       $pdata$__report_securityfailure 0000000185f1f564     LIBCMT:gs_report.obj
 0004:00000570       $pdata$capture_current_context 0000000185f1f570     LIBCMT:gs_report.obj
 0004:0000057c       $pdata$capture_previous_context 0000000185f1f57c     LIBCMT:gs_report.obj
 0004:00000588       $pdata$??2@YAPEAX_K@Z      0000000185f1f588     LIBCMT:new_scalar.obj
 0004:00000594       $pdata$__scrt_acquire_startup_lock 0000000185f1f594     LIBCMT:utility.obj
 0004:000005a0       $pdata$__scrt_dllmain_after_initialize_c 0000000185f1f5a0     LIBCMT:utility.obj
 0004:000005ac       $pdata$__scrt_dllmain_before_initialize_c 0000000185f1f5ac     LIBCMT:utility.obj
 0004:000005b8       $pdata$__scrt_dllmain_crt_thread_attach 0000000185f1f5b8     LIBCMT:utility.obj
 0004:000005c4       $pdata$__scrt_dllmain_crt_thread_detach 0000000185f1f5c4     LIBCMT:utility.obj
 0004:000005d0       $pdata$__scrt_dllmain_exception_filter 0000000185f1f5d0     LIBCMT:utility.obj
 0004:000005dc       $pdata$__scrt_dllmain_uninitialize_c 0000000185f1f5dc     LIBCMT:utility.obj
 0004:000005e8       $pdata$__scrt_dllmain_uninitialize_critical 0000000185f1f5e8     LIBCMT:utility.obj
 0004:000005f4       $pdata$__scrt_initialize_crt 0000000185f1f5f4     LIBCMT:utility.obj
 0004:00000600       $pdata$__scrt_initialize_onexit_tables 0000000185f1f600     LIBCMT:utility.obj
 0004:0000060c       $pdata$__scrt_is_nonwritable_in_current_image 0000000185f1f60c     LIBCMT:utility.obj
 0004:00000618       $pdata$__scrt_release_startup_lock 0000000185f1f618     LIBCMT:utility.obj
 0004:00000624       $pdata$__scrt_uninitialize_crt 0000000185f1f624     LIBCMT:utility.obj
 0004:00000630       $pdata$_onexit             0000000185f1f630     LIBCMT:utility.obj
 0004:0000063c       $pdata$atexit              0000000185f1f63c     LIBCMT:utility.obj
 0004:00000648       $pdata$?dllmain_crt_dispatch@@YAHQEAUHINSTANCE__@@KQEAX@Z 0000000185f1f648     LIBCMT:dll_dllmain.obj
 0004:00000654       $pdata$?dllmain_crt_process_attach@@YAHQEAUHINSTANCE__@@QEAX@Z 0000000185f1f654     LIBCMT:dll_dllmain.obj
 0004:00000660       $pdata$?dllmain_crt_process_detach@@YAH_N@Z 0000000185f1f660     LIBCMT:dll_dllmain.obj
 0004:0000066c       $pdata$?dllmain_dispatch@@YAHQEAUHINSTANCE__@@KQEAX@Z 0000000185f1f66c     LIBCMT:dll_dllmain.obj
 0004:00000678       $pdata$?dllmain_raw@@YAHQEAUHINSTANCE__@@KQEAX@Z 0000000185f1f678     LIBCMT:dll_dllmain.obj
 0004:00000684       $pdata$_DllMainCRTStartup  0000000185f1f684     LIBCMT:dll_dllmain.obj
 0004:00000690       $pdata$??_Gtype_info@@UEAAPEAXI@Z 0000000185f1f690     LIBCMT:std_type_info_static.obj
 0004:0000069c       $pdata$??0bad_array_new_length@std@@QEAA@AEBV01@@Z 0000000185f1f69c     LIBCMT:throw_bad_alloc.obj
 0004:000006a8       $pdata$?__scrt_throw_std_bad_array_new_length@@YAXXZ 0000000185f1f6a8     LIBCMT:throw_bad_alloc.obj
 0004:000006b4       $pdata$__isa_available_init 0000000185f1f6b4     LIBCMT:_cpu_disp_.obj
 0004:000006c0       $pdata$__scrt_fastfail     0000000185f1f6c0     LIBCMT:utility_desktop.obj
 0004:000006cc       $pdata$__security_init_cookie 0000000185f1f6cc     LIBCMT:gs_support.obj
 0004:000006d8       $pdata$__scrt_initialize_default_local_stdio_options 0000000185f1f6d8     LIBCMT:default_local_stdio_options.obj
 0004:000006e4       $pdata$_RTC_Initialize     0000000185f1f6e4     LIBCMT:_initsect_.obj
 0004:000006f0       $pdata$_RTC_Terminate      0000000185f1f6f0     LIBCMT:_initsect_.obj
 0004:00000708       $pdata$__std_exception_copy 0000000185f1f708     libvcruntime:std_exception.obj
 0004:00000714       $pdata$__std_exception_destroy 0000000185f1f714     libvcruntime:std_exception.obj
 0004:00000720       $pdata$_CxxThrowException  0000000185f1f720     libvcruntime:throw.obj
 0004:0000072c       $pdata$__vcrt_initialize   0000000185f1f72c     libvcruntime:initialization.obj
 0004:00000738       $pdata$__vcrt_thread_attach 0000000185f1f738     libvcruntime:initialization.obj
 0004:00000744       $pdata$__vcrt_thread_detach 0000000185f1f744     libvcruntime:initialization.obj
 0004:00000750       $pdata$__vcrt_uninitialize 0000000185f1f750     libvcruntime:initialization.obj
 0004:0000075c       $pdata$__vcrt_uninitialize_critical 0000000185f1f75c     libvcruntime:initialization.obj
 0004:00000768       $pdata$__C_specific_handler 0000000185f1f768     libvcruntime:_chandler_.obj
 0004:00000774       $pdata$__telemetry_main_invoke_trigger 0000000185f1f774     libvcruntime:telemetry.obj
 0004:00000780       $pdata$__telemetry_main_return_trigger 0000000185f1f780     libvcruntime:telemetry.obj
 0004:0000078c       $pdata$__vcrt_uninitialize_telemetry_provider 0000000185f1f78c     libvcruntime:telemetry.obj
 0004:000007a4       $pdata$__std_type_info_destroy_list 0000000185f1f7a4     libvcruntime:std_type_info.obj
 0004:000007b0       $pdata$__vcrt_freefls      0000000185f1f7b0     libvcruntime:per_thread_data.obj
 0004:000007bc       $pdata$__vcrt_freeptd      0000000185f1f7bc     libvcruntime:per_thread_data.obj
 0004:000007c8       $pdata$__vcrt_getptd_noexit 0000000185f1f7c8     libvcruntime:per_thread_data.obj
 0004:000007d4       $pdata$__vcrt_initialize_ptd 0000000185f1f7d4     libvcruntime:per_thread_data.obj
 0004:000007e0       $pdata$__vcrt_uninitialize_ptd 0000000185f1f7e0     libvcruntime:per_thread_data.obj
 0004:000007ec       $pdata$__vcrt_initialize_locks 0000000185f1f7ec     libvcruntime:locks.obj
 0004:000007f8       $pdata$__vcrt_uninitialize_locks 0000000185f1f7f8     libvcruntime:locks.obj
 0004:00000804       $pdata$?try_get_function@@YAPEAXW4function_id@?A0x49c8dc86@@QEBDQEBW4module_id@2@2@Z 0000000185f1f804     libvcruntime:winapi_downlevel.obj
 0004:00000810       $pdata$__vcrt_EventRegister 0000000185f1f810     libvcruntime:winapi_downlevel.obj
 0004:0000081c       $pdata$__vcrt_EventSetInformation 0000000185f1f81c     libvcruntime:winapi_downlevel.obj
 0004:00000828       $pdata$__vcrt_EventUnregister 0000000185f1f828     libvcruntime:winapi_downlevel.obj
 0004:00000834       $pdata$__vcrt_EventWriteTransfer 0000000185f1f834     libvcruntime:winapi_downlevel.obj
 0004:00000840       $pdata$__vcrt_FlsAlloc     0000000185f1f840     libvcruntime:winapi_downlevel.obj
 0004:0000084c       $pdata$__vcrt_FlsFree      0000000185f1f84c     libvcruntime:winapi_downlevel.obj
 0004:00000858       $pdata$__vcrt_FlsGetValue  0000000185f1f858     libvcruntime:winapi_downlevel.obj
 0004:00000864       $pdata$__vcrt_FlsSetValue  0000000185f1f864     libvcruntime:winapi_downlevel.obj
 0004:00000870       $pdata$__vcrt_InitializeCriticalSectionEx 0000000185f1f870     libvcruntime:winapi_downlevel.obj
 0004:0000087c       $pdata$__vcrt_initialize_winapi_thunks 0000000185f1f87c     libvcruntime:winapi_downlevel.obj
 0004:00000888       $pdata$__vcrt_uninitialize_winapi_thunks 0000000185f1f888     libvcruntime:winapi_downlevel.obj
 0004:000008c4       $pdata$??$common_assert_to_message_box@_W@@YAXQEB_W0IQEAX@Z 0000000185f1f8c4     libucrt:assert.obj
 0004:000008d0       $pdata$??$common_assert_to_message_box_build_string@_W@@YAXQEA_W_KQEB_W2IQEAX@Z 0000000185f1f8d0     libucrt:assert.obj
 0004:000008dc       $pdata$??$common_assert_to_stderr@_W@@YAXQEB_W0I@Z 0000000185f1f8dc     libucrt:assert.obj
 0004:000008e8       $pdata$_wassert            0000000185f1f8e8     libucrt:assert.obj
 0004:000008f4       $pdata$fwprintf            0000000185f1f8f4     libucrt:assert.obj
 0004:00000900       $pdata$swprintf            0000000185f1f900     libucrt:assert.obj
 0004:0000090c       $pdata$__acrt_call_reportfault 0000000185f1f90c     libucrt:invalid_parameter.obj
 0004:00000918       $pdata$_invalid_parameter  0000000185f1f918     libucrt:invalid_parameter.obj
 0004:00000924       $pdata$_invalid_parameter_noinfo 0000000185f1f924     libucrt:invalid_parameter.obj
 0004:00000930       $pdata$_invalid_parameter_noinfo_noreturn 0000000185f1f930     libucrt:invalid_parameter.obj
 0004:0000093c       $pdata$_invoke_watson      0000000185f1f93c     libucrt:invalid_parameter.obj
 0004:00000948       $pdata$??0_LocaleUpdate@@QEAA@QEAU__crt_locale_pointers@@@Z 0000000185f1f948     libucrt:stricmp.obj
 0004:00000954       $pdata$_callnewh           0000000185f1f954     libucrt:new_handler.obj
 0004:00000960       $pdata$_query_new_handler  0000000185f1f960     libucrt:new_handler.obj
 0004:0000096c       $pdata$_seh_filter_exe     0000000185f1f96c     libucrt:exception_filter.obj
 0004:00000978       $pdata$?common_exit@@YAXHW4_crt_exit_cleanup_mode@@W4_crt_exit_return_mode@@@Z 0000000185f1f978     libucrt:exit.obj
 0004:00000984       $pdata$?exit_or_terminate_process@@YAXI@Z 0000000185f1f984     libucrt:exit.obj
 0004:00000990       $pdata$?try_cor_exit_process@@YAXI@Z 0000000185f1f990     libucrt:exit.obj
 0004:0000099c       $pdata$??$parse_command_line@D@@YAXPEADPEAPEAD0PEA_K2@Z 0000000185f1f99c     libucrt:argv_parsing.obj
 0004:000009a8       $pdata$__acrt_allocate_buffer_for_argv 0000000185f1f9a8     libucrt:argv_parsing.obj
 0004:000009b4       $pdata$_configure_narrow_argv 0000000185f1f9b4     libucrt:argv_parsing.obj
 0004:000009c0       $pdata$??$common_initialize_environment_nolock@D@@YAHXZ 0000000185f1f9c0     libucrt:environment_initialization.obj
 0004:000009cc       $pdata$??$create_environment@D@@YAQEAPEADQEAD@Z 0000000185f1f9cc     libucrt:environment_initialization.obj
 0004:000009d8       $pdata$??$free_environment@_W@@YAXQEAPEA_W@Z 0000000185f1f9d8     libucrt:environment_initialization.obj
 0004:000009d8       $pdata$??$free_environment@D@@YAXQEAPEAD@Z 0000000185f1f9d8     libucrt:environment_initialization.obj
 0004:000009e4       $pdata$??$uninitialize_environment_internal@D@@YAXAEAPEAPEAD@Z 0000000185f1f9e4     libucrt:environment_initialization.obj
 0004:000009f0       $pdata$??$uninitialize_environment_internal@_W@@YAXAEAPEAPEA_W@Z 0000000185f1f9f0     libucrt:environment_initialization.obj
 0004:000009fc       $pdata$__dcrt_uninitialize_environments_nolock 0000000185f1f9fc     libucrt:environment_initialization.obj
 0004:00000a08       $pdata$??$?RV<lambda_b8c45f8f788dd370798f47cfe8ac3a86>@@AEAV<lambda_4e60a939b0d047cfe11ddc22648dfba9>@@V<lambda_332c3edc96d0294ec56c57d38c1cdfd5>@@@?$__crt_seh_guarded_call@H@@QEAAH$$QEAV<lambda_b8c45f8f788dd370798f47cfe8ac3a86>@@AEAV<lambda_4e60a939b0d047cfe11ddc22648dfba9>@@$$QEAV<lambda_332c3edc96d0294ec56c57d38c1cdfd5>@@@Z 0000000185f1fa08     libucrt:onexit.obj
 0004:00000a14       $pdata$??$?RV<lambda_e24bbb7b643b32fcea6fa61b31d4c984>@@AEAV<lambda_275893d493268fdec8709772e3fcec0e>@@V<lambda_9d71df4d7cf3f480f8d633942495c3b0>@@@?$__crt_seh_guarded_call@H@@QEAAH$$QEAV<lambda_e24bbb7b643b32fcea6fa61b31d4c984>@@AEAV<lambda_275893d493268fdec8709772e3fcec0e>@@$$QEAV<lambda_9d71df4d7cf3f480f8d633942495c3b0>@@@Z 0000000185f1fa14     libucrt:onexit.obj
 0004:00000a20       $pdata$??R<lambda_4e60a939b0d047cfe11ddc22648dfba9>@@QEBAHXZ 0000000185f1fa20     libucrt:onexit.obj
 0004:00000a2c       $pdata$_execute_onexit_table 0000000185f1fa2c     libucrt:onexit.obj
 0004:00000a38       $pdata$_register_onexit_function 0000000185f1fa38     libucrt:onexit.obj
 0004:00000a44       $pdata$initialize_c        0000000185f1fa44     libucrt:initialization.obj
 0004:00000a50       $pdata$uninitialize_environment 0000000185f1fa50     libucrt:initialization.obj
 0004:00000a5c       $pdata$initialize_pointers 0000000185f1fa5c     libucrt:initialization.obj
 0004:00000a68       $pdata$uninitialize_allocated_memory 0000000185f1fa68     libucrt:initialization.obj
 0004:00000a74       $pdata$__acrt_thread_attach 0000000185f1fa74     libucrt:initialization.obj
 0004:00000a80       $pdata$__acrt_thread_detach 0000000185f1fa80     libucrt:initialization.obj
 0004:00000a8c       $pdata$__acrt_uninitialize_critical 0000000185f1fa8c     libucrt:initialization.obj
 0004:00000a98       $pdata$_initterm           0000000185f1fa98     libucrt:initterm.obj
 0004:00000aa4       $pdata$_initterm_e         0000000185f1faa4     libucrt:initterm.obj
 0004:00000ab0       $pdata$terminate           0000000185f1fab0     libucrt:terminate.obj
 0004:00000abc       $pdata$strcpy_s            0000000185f1fabc     libucrt:strcpy_s.obj
 0004:00000ac8       $pdata$_free_base          0000000185f1fac8     libucrt:free_base.obj
 0004:00000ad4       $pdata$_malloc_base        0000000185f1fad4     libucrt:malloc_base.obj
 0004:00000ae0       $pdata$abort               0000000185f1fae0     libucrt:abort.obj
 0004:00000aec       $pdata$_calloc_base        0000000185f1faec     libucrt:calloc_base.obj
 0004:00000af8       $pdata$??$?RV<lambda_7b91131dde12e1c3dfc74ff76b3f2eac>@@AEAV<lambda_dd75445284c072d0bd3768540cc698fa>@@V<lambda_16bc4ecb55b4718497c16bceaea2ceaf>@@@?$__crt_seh_guarded_call@H@@QEAAH$$QEAV<lambda_7b91131dde12e1c3dfc74ff76b3f2eac>@@AEAV<lambda_dd75445284c072d0bd3768540cc698fa>@@$$QEAV<lambda_16bc4ecb55b4718497c16bceaea2ceaf>@@@Z 0000000185f1faf8     libucrt:output.obj
 0004:00000b04       $pdata$??$ensure_buffer_is_big_enough@D@formatting_buffer@__crt_stdio_output@@QEAA_N_K@Z 0000000185f1fb04     libucrt:output.obj
 0004:00000b10       $pdata$??$type_case_integer_parse_into_buffer@I@?$output_processor@_WV?$string_output_adapter@_W@__crt_stdio_output@@V?$standard_base@_WV?$string_output_adapter@_W@__crt_stdio_output@@@2@@__crt_stdio_output@@AEAAXII_N@Z 0000000185f1fb10     libucrt:output.obj
 0004:00000b10       $pdata$??$type_case_integer_parse_into_buffer@I@?$output_processor@_WV?$stream_output_adapter@_W@__crt_stdio_output@@V?$standard_base@_WV?$stream_output_adapter@_W@__crt_stdio_output@@@2@@__crt_stdio_output@@AEAAXII_N@Z 0000000185f1fb10     libucrt:output.obj
 0004:00000b1c       $pdata$??$type_case_integer_parse_into_buffer@_K@?$output_processor@_WV?$stream_output_adapter@_W@__crt_stdio_output@@V?$standard_base@_WV?$stream_output_adapter@_W@__crt_stdio_output@@@2@@__crt_stdio_output@@AEAAX_KI_N@Z 0000000185f1fb1c     libucrt:output.obj
 0004:00000b1c       $pdata$??$type_case_integer_parse_into_buffer@_K@?$output_processor@_WV?$string_output_adapter@_W@__crt_stdio_output@@V?$standard_base@_WV?$string_output_adapter@_W@__crt_stdio_output@@@2@@__crt_stdio_output@@AEAAX_KI_N@Z 0000000185f1fb1c     libucrt:output.obj
 0004:00000b28       $pdata$??$write_multiple_characters@V?$stream_output_adapter@_W@__crt_stdio_output@@D@__crt_stdio_output@@YAXAEBV?$stream_output_adapter@_W@0@DHQEAH@Z 0000000185f1fb28     libucrt:output.obj
 0004:00000b34       $pdata$??$write_multiple_characters@V?$string_output_adapter@_W@__crt_stdio_output@@D@__crt_stdio_output@@YAXAEBV?$string_output_adapter@_W@0@DHQEAH@Z 0000000185f1fb34     libucrt:output.obj
 0004:00000b40       $pdata$??0?$output_processor@_WV?$stream_output_adapter@_W@__crt_stdio_output@@V?$standard_base@_WV?$stream_output_adapter@_W@__crt_stdio_output@@@2@@__crt_stdio_output@@QEAA@AEBV?$stream_output_adapter@_W@1@_KQEB_WQEAU__crt_locale_pointers@@QEAD@Z 0000000185f1fb40     libucrt:output.obj
 0004:00000b40       $pdata$??0?$output_processor@_WV?$string_output_adapter@_W@__crt_stdio_output@@V?$standard_base@_WV?$string_output_adapter@_W@__crt_stdio_output@@@2@@__crt_stdio_output@@QEAA@AEBV?$string_output_adapter@_W@1@_KQEB_WQEAU__crt_locale_pointers@@QEAD@Z 0000000185f1fb40     libucrt:output.obj
 0004:00000b4c       $pdata$??R<lambda_dd75445284c072d0bd3768540cc698fa>@@QEBAHXZ 0000000185f1fb4c     libucrt:output.obj
 0004:00000b58       $pdata$?force_decimal_point@__crt_stdio_output@@YAXPEADQEAU__crt_locale_pointers@@@Z 0000000185f1fb58     libucrt:output.obj
 0004:00000b64       $pdata$?parse_int_from_format_string@?$output_processor@_WV?$string_output_adapter@_W@__crt_stdio_output@@V?$standard_base@_WV?$string_output_adapter@_W@__crt_stdio_output@@@2@@__crt_stdio_output@@AEAA_NQEAH@Z 0000000185f1fb64     libucrt:output.obj
 0004:00000b64       $pdata$?parse_int_from_format_string@?$output_processor@_WV?$stream_output_adapter@_W@__crt_stdio_output@@V?$standard_base@_WV?$stream_output_adapter@_W@__crt_stdio_output@@@2@@__crt_stdio_output@@AEAA_NQEAH@Z 0000000185f1fb64     libucrt:output.obj
 0004:00000b70       $pdata$?process@?$output_processor@_WV?$stream_output_adapter@_W@__crt_stdio_output@@V?$standard_base@_WV?$stream_output_adapter@_W@__crt_stdio_output@@@2@@__crt_stdio_output@@QEAAHXZ 0000000185f1fb70     libucrt:output.obj
 0004:00000b7c       $pdata$?process@?$output_processor@_WV?$string_output_adapter@_W@__crt_stdio_output@@V?$standard_base@_WV?$string_output_adapter@_W@__crt_stdio_output@@@2@@__crt_stdio_output@@QEAAHXZ 0000000185f1fb7c     libucrt:output.obj
 0004:00000b88       $pdata$?state_case_size@?$output_processor@_WV?$stream_output_adapter@_W@__crt_stdio_output@@V?$standard_base@_WV?$stream_output_adapter@_W@__crt_stdio_output@@@2@@__crt_stdio_output@@AEAA_NXZ 0000000185f1fb88     libucrt:output.obj
 0004:00000b94       $pdata$?state_case_size@?$output_processor@_WV?$string_output_adapter@_W@__crt_stdio_output@@V?$standard_base@_WV?$string_output_adapter@_W@__crt_stdio_output@@@2@@__crt_stdio_output@@AEAA_NXZ 0000000185f1fb94     libucrt:output.obj
 0004:00000ba0       $pdata$?state_case_type@?$output_processor@_WV?$stream_output_adapter@_W@__crt_stdio_output@@V?$standard_base@_WV?$stream_output_adapter@_W@__crt_stdio_output@@@2@@__crt_stdio_output@@AEAA_NXZ 0000000185f1fba0     libucrt:output.obj
 0004:00000bac       $pdata$?state_case_type@?$output_processor@_WV?$string_output_adapter@_W@__crt_stdio_output@@V?$standard_base@_WV?$string_output_adapter@_W@__crt_stdio_output@@@2@@__crt_stdio_output@@AEAA_NXZ 0000000185f1fbac     libucrt:output.obj
 0004:00000bb8       $pdata$?type_case_Z@?$output_processor@_WV?$string_output_adapter@_W@__crt_stdio_output@@V?$standard_base@_WV?$string_output_adapter@_W@__crt_stdio_output@@@2@@__crt_stdio_output@@AEAA_NXZ 0000000185f1fbb8     libucrt:output.obj
 0004:00000bb8       $pdata$?type_case_Z@?$output_processor@_WV?$stream_output_adapter@_W@__crt_stdio_output@@V?$standard_base@_WV?$stream_output_adapter@_W@__crt_stdio_output@@@2@@__crt_stdio_output@@AEAA_NXZ 0000000185f1fbb8     libucrt:output.obj
 0004:00000bc4       $pdata$?type_case_a@?$output_processor@_WV?$string_output_adapter@_W@__crt_stdio_output@@V?$standard_base@_WV?$string_output_adapter@_W@__crt_stdio_output@@@2@@__crt_stdio_output@@AEAA_NXZ 0000000185f1fbc4     libucrt:output.obj
 0004:00000bc4       $pdata$?type_case_a@?$output_processor@_WV?$stream_output_adapter@_W@__crt_stdio_output@@V?$standard_base@_WV?$stream_output_adapter@_W@__crt_stdio_output@@@2@@__crt_stdio_output@@AEAA_NXZ 0000000185f1fbc4     libucrt:output.obj
 0004:00000bd0       $pdata$?type_case_c_tchar@?$output_processor@_WV?$string_output_adapter@_W@__crt_stdio_output@@V?$standard_base@_WV?$string_output_adapter@_W@__crt_stdio_output@@@2@@__crt_stdio_output@@AEAA_N_W@Z 0000000185f1fbd0     libucrt:output.obj
 0004:00000bd0       $pdata$?type_case_c_tchar@?$output_processor@_WV?$stream_output_adapter@_W@__crt_stdio_output@@V?$standard_base@_WV?$stream_output_adapter@_W@__crt_stdio_output@@@2@@__crt_stdio_output@@AEAA_N_W@Z 0000000185f1fbd0     libucrt:output.obj
 0004:00000bdc       $pdata$?type_case_integer@?$output_processor@_WV?$string_output_adapter@_W@__crt_stdio_output@@V?$standard_base@_WV?$string_output_adapter@_W@__crt_stdio_output@@@2@@__crt_stdio_output@@AEAA_NI_N@Z 0000000185f1fbdc     libucrt:output.obj
 0004:00000bdc       $pdata$?type_case_integer@?$output_processor@_WV?$stream_output_adapter@_W@__crt_stdio_output@@V?$standard_base@_WV?$stream_output_adapter@_W@__crt_stdio_output@@@2@@__crt_stdio_output@@AEAA_NI_N@Z 0000000185f1fbdc     libucrt:output.obj
 0004:00000be8       $pdata$?type_case_n@?$output_processor@_WV?$string_output_adapter@_W@__crt_stdio_output@@V?$standard_base@_WV?$string_output_adapter@_W@__crt_stdio_output@@@2@@__crt_stdio_output@@AEAA_NXZ 0000000185f1fbe8     libucrt:output.obj
 0004:00000be8       $pdata$?type_case_n@?$output_processor@_WV?$stream_output_adapter@_W@__crt_stdio_output@@V?$standard_base@_WV?$stream_output_adapter@_W@__crt_stdio_output@@@2@@__crt_stdio_output@@AEAA_NXZ 0000000185f1fbe8     libucrt:output.obj
 0004:00000bf4       $pdata$?type_case_s@?$output_processor@_WV?$stream_output_adapter@_W@__crt_stdio_output@@V?$standard_base@_WV?$stream_output_adapter@_W@__crt_stdio_output@@@2@@__crt_stdio_output@@AEAA_NXZ 0000000185f1fbf4     libucrt:output.obj
 0004:00000bf4       $pdata$?type_case_s@?$output_processor@_WV?$string_output_adapter@_W@__crt_stdio_output@@V?$standard_base@_WV?$string_output_adapter@_W@__crt_stdio_output@@@2@@__crt_stdio_output@@AEAA_NXZ 0000000185f1fbf4     libucrt:output.obj
 0004:00000c00       $pdata$?write_stored_string_tchar@?$output_processor@_WV?$stream_output_adapter@_W@__crt_stdio_output@@V?$standard_base@_WV?$stream_output_adapter@_W@__crt_stdio_output@@@2@@__crt_stdio_output@@AEAA_N_W@Z 0000000185f1fc00     libucrt:output.obj
 0004:00000c0c       $pdata$?write_stored_string_tchar@?$output_processor@_WV?$string_output_adapter@_W@__crt_stdio_output@@V?$standard_base@_WV?$string_output_adapter@_W@__crt_stdio_output@@@2@@__crt_stdio_output@@AEAA_N_W@Z 0000000185f1fc0c     libucrt:output.obj
 0004:00000c18       $pdata$?write_string@?$stream_output_adapter@_W@__crt_stdio_output@@QEBAXQEB_WHQEAH1@Z 0000000185f1fc18     libucrt:output.obj
 0004:00000c24       $pdata$?write_string@?$string_output_adapter@_W@__crt_stdio_output@@QEBAXQEB_WHQEAH1@Z 0000000185f1fc24     libucrt:output.obj
 0004:00000c30       $pdata$__stdio_common_vfwprintf 0000000185f1fc30     libucrt:output.obj
 0004:00000c3c       $pdata$__stdio_common_vswprintf 0000000185f1fc3c     libucrt:output.obj
 0004:00000c48       $pdata$??$parse_integer@KV?$c_string_character_source@_W@__crt_strtox@@@__crt_strtox@@YAKQEAU__crt_locale_pointers@@V?$c_string_character_source@_W@0@H_N@Z 0000000185f1fc48     libucrt:atox.obj
 0004:00000c54       $pdata$__acrt_errno_map_os_error 0000000185f1fc54     libucrt:errno.obj
 0004:00000c60       $pdata$__doserrno          0000000185f1fc60     libucrt:errno.obj
 0004:00000c6c       $pdata$_errno              0000000185f1fc6c     libucrt:errno.obj
 0004:00000c78       $pdata$??$common_xtox@K_W@@YAHKQEA_W_KI_N@Z 0000000185f1fc78     libucrt:xtoa.obj
 0004:00000c84       $pdata$??$common_xtox_s@K_W@@YAHKQEA_W_KI_N@Z 0000000185f1fc84     libucrt:xtoa.obj
 0004:00000c90       $pdata$_itow_s             0000000185f1fc90     libucrt:xtoa.obj
 0004:00000c9c       $pdata$_set_error_mode     0000000185f1fc9c     libucrt:set_error_mode.obj
 0004:00000ca8       $pdata$wcscat_s            0000000185f1fca8     libucrt:wcscat_s.obj
 0004:00000cb4       $pdata$wcscpy_s            0000000185f1fcb4     libucrt:wcscpy_s.obj
 0004:00000cc0       $pdata$wcsncat_s           0000000185f1fcc0     libucrt:wcsncat_s.obj
 0004:00000ccc       $pdata$??$message_box_wait_thread@_W@@YAKQEAX@Z 0000000185f1fccc     libucrt:crtmbox.obj
 0004:00000cd8       $pdata$__acrt_show_wide_message_box 0000000185f1fcd8     libucrt:crtmbox.obj
 0004:00000ce4       $pdata$__acrt_initialize_stdio 0000000185f1fce4     libucrt:_file.obj
 0004:00000cf0       $pdata$__acrt_uninitialize_stdio 0000000185f1fcf0     libucrt:_file.obj
 0004:00000cfc       $pdata$__acrt_stdio_flush_nolock 0000000185f1fcfc     libucrt:fflush.obj
 0004:00000d08       $pdata$_fflush_nolock      0000000185f1fd08     libucrt:fflush.obj
 0004:00000d14       $pdata$common_flush_all    0000000185f1fd14     libucrt:fflush.obj
 0004:00000d20       $pdata$fflush              0000000185f1fd20     libucrt:fflush.obj
 0004:00000d2c       $pdata$??$?RV<lambda_7a5ef57ff966f610505f1d28a3d40618>@@AEAV<lambda_b721fa326cdb32351d23dfa67958c160>@@V<lambda_5e0fb27672408a07956fe59e48ccb2aa>@@@?$__crt_seh_guarded_call@H@@QEAAH$$QEAV<lambda_7a5ef57ff966f610505f1d28a3d40618>@@AEAV<lambda_b721fa326cdb32351d23dfa67958c160>@@$$QEAV<lambda_5e0fb27672408a07956fe59e48ccb2aa>@@@Z 0000000185f1fd2c     libucrt:setvbuf.obj
 0004:00000d38       $pdata$??R<lambda_b721fa326cdb32351d23dfa67958c160>@@QEBAHXZ 0000000185f1fd38     libucrt:setvbuf.obj
 0004:00000d44       $pdata$setvbuf             0000000185f1fd44     libucrt:setvbuf.obj
 0004:00000d50       $pdata$??$?RV<lambda_c36588078e9f5dfd39652860aa6b3aaf>@@AEAV<lambda_ec61778202f4f5fc7e7711acc23c3bca>@@V<lambda_dc9d2797ccde5d239b4a0efae8ebd7db>@@@?$__crt_seh_guarded_call@P6AXH@Z@@QEAAP6AXH@Z$$QEAV<lambda_c36588078e9f5dfd39652860aa6b3aaf>@@AEAV<lambda_ec61778202f4f5fc7e7711acc23c3bca>@@$$QEAV<lambda_dc9d2797ccde5d239b4a0efae8ebd7db>@@@Z 0000000185f1fd50     libucrt:signal.obj
 0004:00000d5c       $pdata$__acrt_get_sigabrt_handler 0000000185f1fd5c     libucrt:signal.obj
 0004:00000d68       $pdata$raise               0000000185f1fd68     libucrt:signal.obj
 0004:00000d74       $pdata$??$?RV<lambda_46352004c1216016012b18bd6f87e700>@@AEAV<lambda_3bd07e1a1191394380780325891bf33f>@@V<lambda_334532d3f185bcaa59b5be82d7d22bff>@@@?$__crt_seh_guarded_call@X@@QEAAX$$QEAV<lambda_46352004c1216016012b18bd6f87e700>@@AEAV<lambda_3bd07e1a1191394380780325891bf33f>@@$$QEAV<lambda_334532d3f185bcaa59b5be82d7d22bff>@@@Z 0000000185f1fd74     libucrt:per_thread_data.obj
 0004:00000d80       $pdata$??$?RV<lambda_5e887d1dcbef67a5eb4283622ba103bf>@@AEAV<lambda_4466841279450cc726390878d4a41900>@@V<lambda_341c25c0346d94847f1f3c463c57e077>@@@?$__crt_seh_guarded_call@X@@QEAAX$$QEAV<lambda_5e887d1dcbef67a5eb4283622ba103bf>@@AEAV<lambda_4466841279450cc726390878d4a41900>@@$$QEAV<lambda_341c25c0346d94847f1f3c463c57e077>@@@Z 0000000185f1fd80     libucrt:per_thread_data.obj
 0004:00000d8c       $pdata$??$?RV<lambda_72d1df2b273a38828b1ce30cbf4cdab5>@@AEAV<lambda_876a65b173b8412d3a47c70a915b0cf4>@@V<lambda_41932305e351933ebe8f8be3ed8bb5dc>@@@?$__crt_seh_guarded_call@X@@QEAAX$$QEAV<lambda_72d1df2b273a38828b1ce30cbf4cdab5>@@AEAV<lambda_876a65b173b8412d3a47c70a915b0cf4>@@$$QEAV<lambda_41932305e351933ebe8f8be3ed8bb5dc>@@@Z 0000000185f1fd8c     libucrt:per_thread_data.obj
 0004:00000d98       $pdata$??$?RV<lambda_fb3a7dec4e47f37f22dae91bb15c9095>@@AEAV<lambda_698284760c8add0bfb0756c19673e34b>@@V<lambda_dfb8eca1e75fef3034a8fb18dd509707>@@@?$__crt_seh_guarded_call@X@@QEAAX$$QEAV<lambda_fb3a7dec4e47f37f22dae91bb15c9095>@@AEAV<lambda_698284760c8add0bfb0756c19673e34b>@@$$QEAV<lambda_dfb8eca1e75fef3034a8fb18dd509707>@@@Z 0000000185f1fd98     libucrt:per_thread_data.obj
 0004:00000da4       $pdata$?construct_ptd_array@@YAXQEAU__acrt_ptd@@@Z 0000000185f1fda4     libucrt:per_thread_data.obj
 0004:00000db0       $pdata$?destroy_fls@@YAXPEAX@Z 0000000185f1fdb0     libucrt:per_thread_data.obj
 0004:00000dbc       $pdata$?destroy_ptd_array@@YAXQEAU__acrt_ptd@@@Z 0000000185f1fdbc     libucrt:per_thread_data.obj
 0004:00000dc8       $pdata$?replace_current_thread_locale_nolock@@YAXQEAU__acrt_ptd@@QEAU__crt_locale_data@@@Z 0000000185f1fdc8     libucrt:per_thread_data.obj
 0004:00000dd4       $pdata$__acrt_freeptd      0000000185f1fdd4     libucrt:per_thread_data.obj
 0004:00000de0       $pdata$__acrt_getptd       0000000185f1fde0     libucrt:per_thread_data.obj
 0004:00000dec       $pdata$__acrt_getptd_noexit 0000000185f1fdec     libucrt:per_thread_data.obj
 0004:00000df8       $pdata$__acrt_initialize_ptd 0000000185f1fdf8     libucrt:per_thread_data.obj
 0004:00000e04       $pdata$__acrt_uninitialize_ptd 0000000185f1fe04     libucrt:per_thread_data.obj
 0004:00000e10       $pdata$?internal_isupper_l@@YA_NHQEAU__crt_locale_pointers@@@Z 0000000185f1fe10     libucrt:tolower_toupper.obj
 0004:00000e1c       $pdata$_tolower_l          0000000185f1fe1c     libucrt:tolower_toupper.obj
 0004:00000e28       $pdata$tolower             0000000185f1fe28     libucrt:tolower_toupper.obj
 0004:00000e34       $pdata$__acrt_update_locale_info 0000000185f1fe34     libucrt:locale_update.obj
 0004:00000e40       $pdata$__acrt_update_multibyte_info 0000000185f1fe40     libucrt:locale_update.obj
 0004:00000e4c       $pdata$__acrt_uninitialize_locale 0000000185f1fe4c     libucrt:wsetlocale.obj
 0004:00000e58       $pdata$__acrt_initialize_locks 0000000185f1fe58     libucrt:locks.obj
 0004:00000e64       $pdata$__acrt_uninitialize_locks 0000000185f1fe64     libucrt:locks.obj
 0004:00000e70       $pdata$?try_get_function@@YAPEAXW4function_id@?A0x63058377@@QEBDQEBW4module_id@2@2@Z 0000000185f1fe70     libucrt:winapi_thunks.obj
 0004:00000e7c       $pdata$__acrt_FlsAlloc     0000000185f1fe7c     libucrt:winapi_thunks.obj
 0004:00000e88       $pdata$__acrt_FlsFree      0000000185f1fe88     libucrt:winapi_thunks.obj
 0004:00000e94       $pdata$__acrt_FlsGetValue  0000000185f1fe94     libucrt:winapi_thunks.obj
 0004:00000ea0       $pdata$__acrt_FlsSetValue  0000000185f1fea0     libucrt:winapi_thunks.obj
 0004:00000eac       $pdata$__acrt_InitializeCriticalSectionEx 0000000185f1feac     libucrt:winapi_thunks.obj
 0004:00000eb8       $pdata$__acrt_LCMapStringEx 0000000185f1feb8     libucrt:winapi_thunks.obj
 0004:00000ec4       $pdata$__acrt_LocaleNameToLCID 0000000185f1fec4     libucrt:winapi_thunks.obj
 0004:00000ed0       $pdata$__acrt_MessageBoxW  0000000185f1fed0     libucrt:winapi_thunks.obj
 0004:00000edc       $pdata$__acrt_can_show_message_box 0000000185f1fedc     libucrt:winapi_thunks.obj
 0004:00000ee8       $pdata$__acrt_get_parent_window 0000000185f1fee8     libucrt:winapi_thunks.obj
 0004:00000ef4       $pdata$__acrt_initialize_winapi_thunks 0000000185f1fef4     libucrt:winapi_thunks.obj
 0004:00000f00       $pdata$__acrt_is_interactive 0000000185f1ff00     libucrt:winapi_thunks.obj
 0004:00000f0c       $pdata$__acrt_is_packaged_app 0000000185f1ff0c     libucrt:winapi_thunks.obj
 0004:00000f18       $pdata$__acrt_uninitialize_winapi_thunks 0000000185f1ff18     libucrt:winapi_thunks.obj
 0004:00000f24       $pdata$??$common_expand_argv_wildcards@D@@YAHQEAPEADQEAPEAPEAD@Z 0000000185f1ff24     libucrt:argv_wildcards.obj
 0004:00000f30       $pdata$??$copy_and_add_argument_to_buffer@D@@YAHQEBD0_KAEAV?$argument_list@D@?A0xca0879c4@@@Z 0000000185f1ff30     libucrt:argv_wildcards.obj
 0004:00000f3c       $pdata$??$expand_argument_wildcards@D@@YAHQEAD0AEAV?$argument_list@D@?A0xca0879c4@@@Z 0000000185f1ff3c     libucrt:argv_wildcards.obj
 0004:00000f48       $pdata$?expand_if_necessary@?$argument_list@D@?A0xca0879c4@@AEAAHXZ 0000000185f1ff48     libucrt:argv_wildcards.obj
 0004:00000f54       $pdata$??$?RV<lambda_99476a1ad63dd22509b5d3e65b0ffc95>@@AEAV<lambda_ad1ced32f4ac17aa236e5ef05d6b3b7c>@@V<lambda_f7424dd8d45958661754dc4f2697e9c3>@@@?$__crt_seh_guarded_call@X@@QEAAX$$QEAV<lambda_99476a1ad63dd22509b5d3e65b0ffc95>@@AEAV<lambda_ad1ced32f4ac17aa236e5ef05d6b3b7c>@@$$QEAV<lambda_f7424dd8d45958661754dc4f2697e9c3>@@@Z 0000000185f1ff54     libucrt:mbctype.obj
 0004:00000f60       $pdata$??R<lambda_ad1ced32f4ac17aa236e5ef05d6b3b7c>@@QEBAXXZ 0000000185f1ff60     libucrt:mbctype.obj
 0004:00000f6c       $pdata$?getSystemCP@@YAHH@Z 0000000185f1ff6c     libucrt:mbctype.obj
 0004:00000f78       $pdata$?setSBCS@@YAXPEAU__crt_multibyte_data@@@Z 0000000185f1ff78     libucrt:mbctype.obj
 0004:00000f84       $pdata$?setSBUpLow@@YAXPEAU__crt_multibyte_data@@@Z 0000000185f1ff84     libucrt:mbctype.obj
 0004:00000f90       $pdata$?setmbcp_internal@@YAHH_N@Z 0000000185f1ff90     libucrt:mbctype.obj
 0004:00000f9c       $pdata$__acrt_initialize_multibyte 0000000185f1ff9c     libucrt:mbctype.obj
 0004:00000fa8       $pdata$__acrt_update_thread_multibyte_data 0000000185f1ffa8     libucrt:mbctype.obj
 0004:00000fb4       $pdata$_setmbcp_nolock     0000000185f1ffb4     libucrt:mbctype.obj
 0004:00000fc0       $pdata$?x_ismbbtype_l@@YAHPEAU__crt_locale_pointers@@IHH@Z 0000000185f1ffc0     libucrt:ismbbyte.obj
 0004:00000fcc       $pdata$__acrt_initialize_command_line 0000000185f1ffcc     libucrt:argv_data.obj
 0004:00000fd8       $pdata$__dcrt_get_narrow_environment_from_os 0000000185f1ffd8     libucrt:get_environment_from_os.obj
 0004:00000fe4       $pdata$_recalloc_base      0000000185f1ffe4     libucrt:recalloc.obj
 0004:00000ff0       $pdata$__acrt_initialize_heap 0000000185f1fff0     libucrt:heap_handle.obj
 0004:00000ffc       $pdata$?initialize_inherited_file_handles_nolock@@YAXXZ 0000000185f1fffc     libucrt:ioinit.obj
 0004:00001008       $pdata$?initialize_stdio_handles_nolock@@YAXXZ 0000000185f20008     libucrt:ioinit.obj
 0004:00001014       $pdata$__acrt_initialize_lowio 0000000185f20014     libucrt:ioinit.obj
 0004:00001020       $pdata$__acrt_uninitialize_lowio 0000000185f20020     libucrt:ioinit.obj
 0004:0000102c       $pdata$__acrt_execute_initializers 0000000185f2002c     libucrt:shared_initialization.obj
 0004:00001038       $pdata$__acrt_execute_uninitializers 0000000185f20038     libucrt:shared_initialization.obj
 0004:00001044       $pdata$__acrt_invoke_user_matherr 0000000185f20044     libucrt:matherr.obj
 0004:00001050       $pdata$__acrt_stdio_begin_temporary_buffering_nolock 0000000185f20050     libucrt:_sftbuf.obj
 0004:0000105c       $pdata$__acrt_stdio_end_temporary_buffering_nolock 0000000185f2005c     libucrt:_sftbuf.obj
 0004:00001068       $pdata$isdigit             0000000185f20068     libucrt:_ctype.obj
 0004:00001074       $pdata$wcstol              0000000185f20074     libucrt:strtox.obj
 0004:00001080       $pdata$_mbtowc_l           0000000185f20080     libucrt:mbtowc.obj
 0004:0000108c       $pdata$_wctomb_s_l         0000000185f2008c     libucrt:wctomb.obj
 0004:00001098       $pdata$wctomb_s            0000000185f20098     libucrt:wctomb.obj
 0004:000010a4       $pdata$wcsnlen             0000000185f200a4     libucrt:strnlen.obj
 0004:000010b0       $pdata$?fp_format_a@@YAHQEBNPEAD_KQEAD2H_NIQEAU__crt_locale_pointers@@@Z 0000000185f200b0     libucrt:cvt.obj
 0004:000010bc       $pdata$?fp_format_e@@YAHQEBNQEAD_K12H_NIQEAU__crt_locale_pointers@@@Z 0000000185f200bc     libucrt:cvt.obj
 0004:000010c8       $pdata$?fp_format_e_internal@@YAHQEAD_KH_NIQEAU_strflt@@2QEAU__crt_locale_pointers@@@Z 0000000185f200c8     libucrt:cvt.obj
 0004:000010d4       $pdata$?fp_format_f_internal@@YAHQEAD_KHQEAU_strflt@@_NQEAU__crt_locale_pointers@@@Z 0000000185f200d4     libucrt:cvt.obj
 0004:000010e0       $pdata$?fp_format_g@@YAHQEBNQEAD_K12H_NIQEAU__crt_locale_pointers@@@Z 0000000185f200e0     libucrt:cvt.obj
 0004:000010ec       $pdata$?fp_format_nan_or_infinity@@YAHW4__acrt_fp_class@@_NPEAD_K1@Z 0000000185f200ec     libucrt:cvt.obj
 0004:000010f8       $pdata$__acrt_fp_format    0000000185f200f8     libucrt:cvt.obj
 0004:00001104       $pdata$_fputwc_nolock      0000000185f20104     libucrt:fputwc.obj
 0004:00001110       $pdata$_fileno             0000000185f20110     libucrt:fileno.obj
 0004:0000111c       $pdata$__pctype_func       0000000185f2011c     libucrt:ctype.obj
 0004:00001128       $pdata$iswctype            0000000185f20128     libucrt:iswctype.obj
 0004:00001134       $pdata$_isctype_l          0000000185f20134     libucrt:isctype.obj
 0004:00001140       $pdata$_fcloseall          0000000185f20140     libucrt:closeall.obj
 0004:0000114c       $pdata$__acrt_stdio_free_buffer_nolock 0000000185f2014c     libucrt:_freebuf.obj
 0004:00001158       $pdata$??$?RV<lambda_b521505b218e5242e90febf6bfebc422>@@AEAV<lambda_6978c1fb23f02e42e1d9e99668cc68aa>@@V<lambda_314360699dd331753a4119843814e9a7>@@@?$__crt_seh_guarded_call@H@@QEAAH$$QEAV<lambda_b521505b218e5242e90febf6bfebc422>@@AEAV<lambda_6978c1fb23f02e42e1d9e99668cc68aa>@@$$QEAV<lambda_314360699dd331753a4119843814e9a7>@@@Z 0000000185f20158     libucrt:commit.obj
 0004:00001164       $pdata$_commit             0000000185f20164     libucrt:commit.obj
 0004:00001170       $pdata$?write_double_translated_ansi_nolock@@YA?AUwrite_result@?A0x9c548279@@HQEBDI@Z 0000000185f20170     libucrt:write.obj
 0004:0000117c       $pdata$?write_text_ansi_nolock@@YA?AUwrite_result@?A0x9c548279@@HQEBDI@Z 0000000185f2017c     libucrt:write.obj
 0004:00001188       $pdata$?write_text_utf16le_nolock@@YA?AUwrite_result@?A0x9c548279@@HQEBDI@Z 0000000185f20188     libucrt:write.obj
 0004:00001194       $pdata$?write_text_utf8_nolock@@YA?AUwrite_result@?A0x9c548279@@HQEBDI@Z 0000000185f20194     libucrt:write.obj
 0004:000011a0       $pdata$_write              0000000185f201a0     libucrt:write.obj
 0004:000011ac       $pdata$_write_nolock       0000000185f201ac     libucrt:write.obj
 0004:000011b8       $pdata$__acrt_free_locale  0000000185f201b8     libucrt:locale_refcounting.obj
 0004:000011c4       $pdata$__acrt_locale_free_lc_time_if_unreferenced 0000000185f201c4     libucrt:locale_refcounting.obj
 0004:000011d0       $pdata$__acrt_release_locale_ref 0000000185f201d0     libucrt:locale_refcounting.obj
 0004:000011dc       $pdata$__acrt_update_thread_locale_data 0000000185f201dc     libucrt:locale_refcounting.obj
 0004:000011e8       $pdata$_updatetlocinfoEx_nolock 0000000185f201e8     libucrt:locale_refcounting.obj
 0004:000011f4       $pdata$_isleadbyte_l       0000000185f201f4     libucrt:_wctype.obj
 0004:00001200       $pdata$?__acrt_LCMapStringA_stat@@YAHPEAU__crt_locale_pointers@@PEB_WKPEBDHPEADHHH@Z 0000000185f20200     libucrt:lcmapstringa.obj
 0004:0000120c       $pdata$__acrt_LCMapStringA 0000000185f2020c     libucrt:lcmapstringa.obj
 0004:00001218       $pdata$__acrt_locale_free_monetary 0000000185f20218     libucrt:initmon.obj
 0004:00001224       $pdata$__acrt_locale_free_numeric 0000000185f20224     libucrt:initnum.obj
 0004:00001230       $pdata$?free_crt_array_internal@@YAXQEAPEBX_K@Z 0000000185f20230     libucrt:inittime.obj
 0004:0000123c       $pdata$__acrt_locale_free_time 0000000185f2023c     libucrt:inittime.obj
 0004:00001248       $pdata$__acrt_GetStringTypeA 0000000185f20248     libucrt:getstringtypea.obj
 0004:00001254       $pdata$?GetTableIndexFromLocaleName@@YAHPEB_W@Z 0000000185f20254     libucrt:lcidtoname_downlevel.obj
 0004:00001260       $pdata$__acrt_DownlevelLocaleNameToLCID 0000000185f20260     libucrt:lcidtoname_downlevel.obj
 0004:0000126c       $pdata$?shortsort@@YAXPEAD0_KP6AHPEBX2@Z@Z 0000000185f2026c     libucrt:qsort.obj
 0004:00001278       $pdata$2$?shortsort@@YAXPEAD0_KP6AHPEBX2@Z@Z 0000000185f20278     libucrt:qsort.obj
 0004:00001284       $pdata$3$?shortsort@@YAXPEAD0_KP6AHPEBX2@Z@Z 0000000185f20284     libucrt:qsort.obj
 0004:00001290       $pdata$qsort               0000000185f20290     libucrt:qsort.obj
 0004:0000129c       $pdata$4$qsort             0000000185f2029c     libucrt:qsort.obj
 0004:000012a8       $pdata$5$qsort             0000000185f202a8     libucrt:qsort.obj
 0004:000012b4       $pdata$strncpy_s           0000000185f202b4     libucrt:strncpy_s.obj
 0004:000012c0       $pdata$strpbrk             0000000185f202c0     libucrt:strpbrk.obj
 0004:000012cc       $pdata$_mbsdec_l           0000000185f202cc     libucrt:mbsdec.obj
 0004:000012d8       $pdata$?initialize_multibyte@@YAHXZ 0000000185f202d8     libucrt:multibyte_initializer.obj
 0004:000012e4       $pdata$_msize              0000000185f202e4     libucrt:msize.obj
 0004:000012f0       $pdata$_realloc_base       0000000185f202f0     libucrt:realloc_base.obj
 0004:000012fc       $pdata$__acrt_lowio_create_handle_array 0000000185f202fc     libucrt:osfinfo.obj
 0004:00001308       $pdata$__acrt_lowio_destroy_handle_array 0000000185f20308     libucrt:osfinfo.obj
 0004:00001314       $pdata$__acrt_lowio_ensure_fh_exists 0000000185f20314     libucrt:osfinfo.obj
 0004:00001320       $pdata$_free_osfhnd        0000000185f20320     libucrt:osfinfo.obj
 0004:0000132c       $pdata$_get_osfhandle      0000000185f2032c     libucrt:osfinfo.obj
 0004:00001338       $pdata$_isatty             0000000185f20338     libucrt:isatty.obj
 0004:00001344       $pdata$__acrt_fp_strflt_to_string 0000000185f20344     libucrt:_fptostr.obj
 0004:00001350       $pdata$?divide@__crt_strtox@@YA_KAEAUbig_integer@1@AEBU21@@Z 0000000185f20350     libucrt:cfout.obj
 0004:0000135c       $pdata$5$?divide@__crt_strtox@@YA_KAEAUbig_integer@1@AEBU21@@Z 0000000185f2035c     libucrt:cfout.obj
 0004:00001368       $pdata$6$?divide@__crt_strtox@@YA_KAEAUbig_integer@1@AEBU21@@Z 0000000185f20368     libucrt:cfout.obj
 0004:00001374       $pdata$__acrt_fltout       0000000185f20374     libucrt:cfout.obj
 0004:00001380       $pdata$memcpy_s            0000000185f20380     libucrt:cfout.obj
 0004:0000138c       $pdata$??$write_buffer_nolock@D@@YA_NDV__crt_stdio_stream@@@Z 0000000185f2038c     libucrt:_flsbuf.obj
 0004:00001398       $pdata$??$write_buffer_nolock@_W@@YA_N_WV__crt_stdio_stream@@@Z 0000000185f20398     libucrt:_flsbuf.obj
 0004:000013a4       $pdata$__acrt_stdio_flush_and_write_narrow_nolock 0000000185f203a4     libucrt:_flsbuf.obj
 0004:000013b0       $pdata$__acrt_stdio_flush_and_write_wide_nolock 0000000185f203b0     libucrt:_flsbuf.obj
 0004:000013bc       $pdata$_fclose_nolock      0000000185f203bc     libucrt:fclose.obj
 0004:000013c8       $pdata$fclose              0000000185f203c8     libucrt:fclose.obj
 0004:000013d4       $pdata$??$common_lseek@_J@@YA_JH_JH@Z 0000000185f203d4     libucrt:lseek.obj
 0004:000013e0       $pdata$??$common_lseek_nolock@_J@@YA_JH_JH@Z 0000000185f203e0     libucrt:lseek.obj
 0004:000013ec       $pdata$_putwch_nolock      0000000185f203ec     libucrt:putwch.obj
 0004:000013f8       $pdata$fegetenv            0000000185f203f8     libucrt:fegetenv.obj
 0004:00001404       $pdata$fesetenv            0000000185f20404     libucrt:fesetenv.obj
 0004:00001410       $pdata$feholdexcept        0000000185f20410     libucrt:feholdexcept.obj
 0004:00001428       $pdata$__acrt_stdio_allocate_buffer_nolock 0000000185f20428     libucrt:_getbuf.obj
 0004:00001434       $pdata$??$?RV<lambda_bfedae4ebbf01fab1bb6dcc6a9e276e0>@@AEAV<lambda_2fe9b910cf3cbf4a0ab98a02ba45b3ec>@@V<lambda_237c231691f317818eb88cc1d5d642d6>@@@?$__crt_seh_guarded_call@H@@QEAAH$$QEAV<lambda_bfedae4ebbf01fab1bb6dcc6a9e276e0>@@AEAV<lambda_2fe9b910cf3cbf4a0ab98a02ba45b3ec>@@$$QEAV<lambda_237c231691f317818eb88cc1d5d642d6>@@@Z 0000000185f20434     libucrt:close.obj
 0004:00001440       $pdata$_close              0000000185f20440     libucrt:close.obj
 0004:0000144c       $pdata$_close_nolock       0000000185f2044c     libucrt:close.obj
 0004:00001458       $pdata$__dcrt_lowio_initialize_console_output 0000000185f20458     libucrt:initcon.obj
 0004:00001464       $pdata$__dcrt_terminate_console_output 0000000185f20464     libucrt:initcon.obj
 0004:00001470       $pdata$_getfpcontrolword   0000000185f20470     libucrt:_fenvutils.obj
 0004:0000147c       $pdata$_getfpstatusword    0000000185f2047c     libucrt:_fenvutils.obj
 0004:00001488       $pdata$_setfpstatusword    0000000185f20488     libucrt:_fenvutils.obj
 0004:00001494       $pdata$_clearfp            0000000185f20494     libucrt:ieee.obj
 0004:000014a0       $pdata$common_control87    0000000185f204a0     libucrt:ieee.obj
 0004:000014ac       $pdata$_call_matherr       0000000185f204ac     libucrt:libm_error.obj
 0004:000014b8       $pdata$_exception_enabled  0000000185f204b8     libucrt:libm_error.obj
 0004:000014c4       $pdata$_handle_error       0000000185f204c4     libucrt:libm_error.obj
 0004:000014d0       $pdata$_handle_errorf      0000000185f204d0     libucrt:libm_error.obj
 0004:000014dc       $pdata$__acrt_initialize_fma3 0000000185f204dc     libucrt:fma3_available.obj
 0004:000014e8       $pdata$_log10_special      0000000185f204e8     libucrt:log_special.obj
 0004:000014f4       $pdata$_log_special_common 0000000185f204f4     libucrt:log_special.obj
 0004:0000150c       $pdata$_raise_exc          0000000185f2050c     libucrt:fpexcept.obj
 0004:00001518       $pdata$_raise_exc_ex       0000000185f20518     libucrt:fpexcept.obj
 0004:00001524       $pdata$_raise_excf         0000000185f20524     libucrt:fpexcept.obj
 0004:00001530       $pdata$_set_errno_from_matherr 0000000185f20530     libucrt:fpexcept.obj
 0004:0000153c       $pdata$_clrfp              0000000185f2053c     libucrt:fpctrl.obj
 0004:00001548       $pdata$_ctrlfp             0000000185f20548     libucrt:fpctrl.obj
 0004:00001554       $pdata$_set_statfp         0000000185f20554     libucrt:fpctrl.obj
 0004:00001560       $pdata$_statfp             0000000185f20560     libucrt:fpctrl.obj
 0004:0000156c       $pdata$_IsNonwritableInCurrentImage 0000000185f2056c     LIBCMT:pesect.obj
 0004:00001578       $pdata$__GSHandlerCheck    0000000185f20578     LIBCMT:_gshandler_.obj
 0004:00001584       $pdata$__GSHandlerCheckCommon 0000000185f20584     LIBCMT:_gshandler_.obj
 0004:000015a8       $pdata$strrchr             0000000185f205a8     libvcruntime:strrchr.obj
 0004:000015b4       $pdata$atanf               0000000185f205b4     libucrt:atanf.obj
 0004:000015fc       $pdata$_sincosf_special    0000000185f205fc     libucrt:sincos_special.obj
 0004:00001620       $pdata$__scrt_is_nonwritable_in_current_image$filt$0 0000000185f20620     LIBCMT:utility.obj
 0004:0000162c       $pdata$?fin$0@?0??dllmain_crt_process_attach@@YAHQEAUHINSTANCE__@@QEAX@Z@4HA 0000000185f2062c     LIBCMT:dll_dllmain.obj
 0004:00001638       $pdata$?fin$0@?0??dllmain_crt_process_detach@@YAH_N@Z@4HA 0000000185f20638     LIBCMT:dll_dllmain.obj
 0004:00001644       $pdata$?filt$0@?0??dllmain_dispatch@@YAHQEAUHINSTANCE__@@KQEAX@Z@4HA 0000000185f20644     LIBCMT:dll_dllmain.obj
 0004:00001650       $pdata$_query_new_handler$fin$0 0000000185f20650     libucrt:new_handler.obj
 0004:0000165c       $pdata$?filt$0@?0??common_exit@@YAXHW4_crt_exit_cleanup_mode@@W4_crt_exit_return_mode@@@Z@4HA 0000000185f2065c     libucrt:exit.obj
 0004:00001668       $pdata$?fin$1@?0??common_exit@@YAXHW4_crt_exit_cleanup_mode@@W4_crt_exit_return_mode@@@Z@4HA 0000000185f20668     libucrt:exit.obj
 0004:00001674       $pdata$?fin$0@?0???$?RV<lambda_e24bbb7b643b32fcea6fa61b31d4c984>@@AEAV<lambda_275893d493268fdec8709772e3fcec0e>@@V<lambda_9d71df4d7cf3f480f8d633942495c3b0>@@@?$__crt_seh_guarded_call@H@@QEAAH$$QEAV<lambda_e24bbb7b643b32fcea6fa61b31d4c984>@@AEAV<lambda_275893d493268fdec8709772e3fcec0e>@@$$QEAV<lambda_9d71df4d7cf3f480f8d633942495c3b0>@@@Z@4HA 0000000185f20674     libucrt:onexit.obj
 0004:00001680       $pdata$common_flush_all$fin$0 0000000185f20680     libucrt:fflush.obj
 0004:0000168c       $pdata$common_flush_all$fin$1 0000000185f2068c     libucrt:fflush.obj
 0004:00001698       $pdata$?fin$0@?0???$?RV<lambda_7a5ef57ff966f610505f1d28a3d40618>@@AEAV<lambda_b721fa326cdb32351d23dfa67958c160>@@V<lambda_5e0fb27672408a07956fe59e48ccb2aa>@@@?$__crt_seh_guarded_call@H@@QEAAH$$QEAV<lambda_7a5ef57ff966f610505f1d28a3d40618>@@AEAV<lambda_b721fa326cdb32351d23dfa67958c160>@@$$QEAV<lambda_5e0fb27672408a07956fe59e48ccb2aa>@@@Z@4HA 0000000185f20698     libucrt:setvbuf.obj
 0004:00001698       $pdata$?fin$0@?0???$?RV<lambda_7b91131dde12e1c3dfc74ff76b3f2eac>@@AEAV<lambda_dd75445284c072d0bd3768540cc698fa>@@V<lambda_16bc4ecb55b4718497c16bceaea2ceaf>@@@?$__crt_seh_guarded_call@H@@QEAAH$$QEAV<lambda_7b91131dde12e1c3dfc74ff76b3f2eac>@@AEAV<lambda_dd75445284c072d0bd3768540cc698fa>@@$$QEAV<lambda_16bc4ecb55b4718497c16bceaea2ceaf>@@@Z@4HA 0000000185f20698     libucrt:output.obj
 0004:000016a4       $pdata$raise$fin$0         0000000185f206a4     libucrt:signal.obj
 0004:000016b0       $pdata$?fin$0@?0???$?RV<lambda_fb3a7dec4e47f37f22dae91bb15c9095>@@AEAV<lambda_698284760c8add0bfb0756c19673e34b>@@V<lambda_dfb8eca1e75fef3034a8fb18dd509707>@@@?$__crt_seh_guarded_call@X@@QEAAX$$QEAV<lambda_fb3a7dec4e47f37f22dae91bb15c9095>@@AEAV<lambda_698284760c8add0bfb0756c19673e34b>@@$$QEAV<lambda_dfb8eca1e75fef3034a8fb18dd509707>@@@Z@4HA 0000000185f206b0     libucrt:per_thread_data.obj
 0004:000016b0       $pdata$?fin$0@?0???$?RV<lambda_46352004c1216016012b18bd6f87e700>@@AEAV<lambda_3bd07e1a1191394380780325891bf33f>@@V<lambda_334532d3f185bcaa59b5be82d7d22bff>@@@?$__crt_seh_guarded_call@X@@QEAAX$$QEAV<lambda_46352004c1216016012b18bd6f87e700>@@AEAV<lambda_3bd07e1a1191394380780325891bf33f>@@$$QEAV<lambda_334532d3f185bcaa59b5be82d7d22bff>@@@Z@4HA 0000000185f206b0     libucrt:per_thread_data.obj
 0004:000016b0       $pdata$?fin$0@?0???$?RV<lambda_72d1df2b273a38828b1ce30cbf4cdab5>@@AEAV<lambda_876a65b173b8412d3a47c70a915b0cf4>@@V<lambda_41932305e351933ebe8f8be3ed8bb5dc>@@@?$__crt_seh_guarded_call@X@@QEAAX$$QEAV<lambda_72d1df2b273a38828b1ce30cbf4cdab5>@@AEAV<lambda_876a65b173b8412d3a47c70a915b0cf4>@@$$QEAV<lambda_41932305e351933ebe8f8be3ed8bb5dc>@@@Z@4HA 0000000185f206b0     libucrt:per_thread_data.obj
 0004:000016b0       $pdata$?fin$0@?0???$?RV<lambda_5e887d1dcbef67a5eb4283622ba103bf>@@AEAV<lambda_4466841279450cc726390878d4a41900>@@V<lambda_341c25c0346d94847f1f3c463c57e077>@@@?$__crt_seh_guarded_call@X@@QEAAX$$QEAV<lambda_5e887d1dcbef67a5eb4283622ba103bf>@@AEAV<lambda_4466841279450cc726390878d4a41900>@@$$QEAV<lambda_341c25c0346d94847f1f3c463c57e077>@@@Z@4HA 0000000185f206b0     libucrt:per_thread_data.obj
 0004:000016b0       $pdata$?fin$0@?0???$?RV<lambda_99476a1ad63dd22509b5d3e65b0ffc95>@@AEAV<lambda_ad1ced32f4ac17aa236e5ef05d6b3b7c>@@V<lambda_f7424dd8d45958661754dc4f2697e9c3>@@@?$__crt_seh_guarded_call@X@@QEAAX$$QEAV<lambda_99476a1ad63dd22509b5d3e65b0ffc95>@@AEAV<lambda_ad1ced32f4ac17aa236e5ef05d6b3b7c>@@$$QEAV<lambda_f7424dd8d45958661754dc4f2697e9c3>@@@Z@4HA 0000000185f206b0     libucrt:mbctype.obj
 0004:000016b0       $pdata$?fin$0@?0???$?RV<lambda_b8c45f8f788dd370798f47cfe8ac3a86>@@AEAV<lambda_4e60a939b0d047cfe11ddc22648dfba9>@@V<lambda_332c3edc96d0294ec56c57d38c1cdfd5>@@@?$__crt_seh_guarded_call@H@@QEAAH$$QEAV<lambda_b8c45f8f788dd370798f47cfe8ac3a86>@@AEAV<lambda_4e60a939b0d047cfe11ddc22648dfba9>@@$$QEAV<lambda_332c3edc96d0294ec56c57d38c1cdfd5>@@@Z@4HA 0000000185f206b0     libucrt:onexit.obj
 0004:000016b0       $pdata$?fin$0@?0???$?RV<lambda_c36588078e9f5dfd39652860aa6b3aaf>@@AEAV<lambda_ec61778202f4f5fc7e7711acc23c3bca>@@V<lambda_dc9d2797ccde5d239b4a0efae8ebd7db>@@@?$__crt_seh_guarded_call@P6AXH@Z@@QEAAP6AXH@Z$$QEAV<lambda_c36588078e9f5dfd39652860aa6b3aaf>@@AEAV<lambda_ec61778202f4f5fc7e7711acc23c3bca>@@$$QEAV<lambda_dc9d2797ccde5d239b4a0efae8ebd7db>@@@Z@4HA 0000000185f206b0     libucrt:signal.obj
 0004:000016bc       $pdata$__acrt_update_thread_multibyte_data$fin$0 0000000185f206bc     libucrt:mbctype.obj
 0004:000016c8       $pdata$__acrt_lowio_ensure_fh_exists$fin$0 0000000185f206c8     libucrt:osfinfo.obj
 0004:000016c8       $pdata$__acrt_initialize_lowio$fin$0 0000000185f206c8     libucrt:ioinit.obj
 0004:000016d4       $pdata$_fcloseall$fin$0    0000000185f206d4     libucrt:closeall.obj
 0004:000016e0       $pdata$__acrt_uninitialize_locale$fin$0 0000000185f206e0     libucrt:wsetlocale.obj
 0004:000016e0       $pdata$__acrt_update_thread_locale_data$fin$0 0000000185f206e0     libucrt:locale_refcounting.obj
 0004:000016ec       $pdata$fclose$fin$0        0000000185f206ec     libucrt:fclose.obj
 0004:000016ec       $pdata$fflush$fin$0        0000000185f206ec     libucrt:fflush.obj
 0004:000016f8       $pdata$_write$fin$0        0000000185f206f8     libucrt:write.obj
 0004:000016f8       $pdata$?fin$0@?0???$common_lseek@_J@@YA_JH_JH@Z@4HA 0000000185f206f8     libucrt:lseek.obj
 0004:00001704       $pdata$?fin$0@?0???$?RV<lambda_bfedae4ebbf01fab1bb6dcc6a9e276e0>@@AEAV<lambda_2fe9b910cf3cbf4a0ab98a02ba45b3ec>@@V<lambda_237c231691f317818eb88cc1d5d642d6>@@@?$__crt_seh_guarded_call@H@@QEAAH$$QEAV<lambda_bfedae4ebbf01fab1bb6dcc6a9e276e0>@@AEAV<lambda_2fe9b910cf3cbf4a0ab98a02ba45b3ec>@@$$QEAV<lambda_237c231691f317818eb88cc1d5d642d6>@@@Z@4HA 0000000185f20704     libucrt:close.obj
 0004:00001704       $pdata$?fin$0@?0???$?RV<lambda_b521505b218e5242e90febf6bfebc422>@@AEAV<lambda_6978c1fb23f02e42e1d9e99668cc68aa>@@V<lambda_314360699dd331753a4119843814e9a7>@@@?$__crt_seh_guarded_call@H@@QEAAH$$QEAV<lambda_b521505b218e5242e90febf6bfebc422>@@AEAV<lambda_6978c1fb23f02e42e1d9e99668cc68aa>@@$$QEAV<lambda_314360699dd331753a4119843814e9a7>@@@Z@4HA 0000000185f20704     libucrt:commit.obj
 0004:00001710       $pdata$_ctrlfp$filt$0      0000000185f20710     libucrt:fpctrl.obj
 0004:00001710       $pdata$common_control87$filt$0 0000000185f20710     libucrt:ieee.obj
 0004:0000171c       $pdata$_IsNonwritableInCurrentImage$filt$0 0000000185f2071c     LIBCMT:pesect.obj
 0005:00000000       __guard_fids__             0000000185f21000     libucrt:initialization.obj
 0005:00000060       __guard_fids___acrt_show_wide_message_box 0000000185f21060     libucrt:crtmbox.obj
 0005:00000064       __guard_fids___acrt_initialize_ptd 0000000185f21064     libucrt:per_thread_data.obj
 0005:00000068       __guard_fids_??$expand_argument_wildcards@D@@YAHQEAD0AEAV?$argument_list@D@?A0xca0879c4@@@Z 0000000185f21068     libucrt:argv_wildcards.obj
 0005:0000006c       __guard_fids__             0000000185f2106c     libucrt:stdio_initializer.obj
 0005:00000070       __guard_fids__             0000000185f21070     libucrt:stdio_initializer.obj
 0005:00000074       __guard_fids__             0000000185f21074     libucrt:locale_initializer.obj
 0005:00000078       __guard_fids__             0000000185f21078     libucrt:multibyte_initializer.obj
 0005:0000007c       __guard_fids__             0000000185f2107c     libucrt:console_output_initializer.obj
 0005:00000080       __guard_fids__             0000000185f21080     libucrt:fma3_initializer.obj
 0005:00000084       __guard_fids__             0000000185f21084     libcpmt:xthrow.obj
 0005:0000008c       __guard_fids__             0000000185f2108c     libcpmt:xthrow.obj
 0005:00000094       __guard_fids__             0000000185f21094     libcpmt:xthrow.obj
 0005:0000009c       __guard_fids__             0000000185f2109c     libcpmt:xthrow.obj
 0005:000000a4       __guard_fids__             0000000185f210a4     libcpmt:xthrow.obj
 0005:000000ac       __guard_fids_?dllmain_crt_process_attach@@YAHQEAUHINSTANCE__@@QEAX@Z 0000000185f210ac     LIBCMT:dll_dllmain.obj
 0005:000000b4       __guard_fids_?dllmain_dispatch@@YAHQEAUHINSTANCE__@@KQEAX@Z 0000000185f210b4     LIBCMT:dll_dllmain.obj
 0005:000000b8       __guard_fids__             0000000185f210b8     LIBCMT:std_type_info_static.obj
 0005:000000bc       __guard_fids__             0000000185f210bc     LIBCMT:throw_bad_alloc.obj
 0005:000000c4       __guard_fids__             0000000185f210c4     LIBCMT:guard_support.obj
 0005:000000c8       __guard_fids__             0000000185f210c8     libvcruntime:telemetry.obj
 0005:000000cc       __guard_fids_?TraceLoggingRegister@__vcrt_trace_logging_provider@@YAJPEBU_TlgProvider_t@1@PEBU_GUID@@P6AX1KE_K2PEAU_EVENT_FILTER_DESCRIPTOR@@PEAX@Z4@Z 0000000185f210cc     libvcruntime:telemetry.obj
 0005:000000d0       __guard_fids___vcrt_initialize_ptd 0000000185f210d0     libvcruntime:per_thread_data.obj
 0006:00000060       $R000000                   0000000185f22060     * linker generated manifest res *

 Exports

  ordinal    name

        1    _register_kinect2_
